
game/game:     file format elf32-i386


Disassembly of section .text:

00800000 <sulp>:
  800000:	55                   	push   %ebp
  800001:	89 e5                	mov    %esp,%ebp
  800003:	53                   	push   %ebx
  800004:	89 cb                	mov    %ecx,%ebx
  800006:	83 ec 14             	sub    $0x14,%esp
  800009:	89 45 f0             	mov    %eax,-0x10(%ebp)
  80000c:	89 55 f4             	mov    %edx,-0xc(%ebp)
  80000f:	dd 45 f0             	fldl   -0x10(%ebp)
  800012:	dd 1c 24             	fstpl  (%esp)
  800015:	e8 86 ae 03 00       	call   83aea0 <__ulp>
  80001a:	85 db                	test   %ebx,%ebx
  80001c:	74 2c                	je     80004a <sulp+0x4a>
  80001e:	8b 55 f4             	mov    -0xc(%ebp),%edx
  800021:	b8 6b 00 00 00       	mov    $0x6b,%eax
  800026:	81 e2 00 00 f0 7f    	and    $0x7ff00000,%edx
  80002c:	c1 ea 14             	shr    $0x14,%edx
  80002f:	29 d0                	sub    %edx,%eax
  800031:	85 c0                	test   %eax,%eax
  800033:	7e 15                	jle    80004a <sulp+0x4a>
  800035:	c1 e0 14             	shl    $0x14,%eax
  800038:	05 00 00 f0 3f       	add    $0x3ff00000,%eax
  80003d:	89 45 f4             	mov    %eax,-0xc(%ebp)
  800040:	c7 45 f0 00 00 00 00 	movl   $0x0,-0x10(%ebp)
  800047:	dc 4d f0             	fmull  -0x10(%ebp)
  80004a:	83 c4 14             	add    $0x14,%esp
  80004d:	5b                   	pop    %ebx
  80004e:	5d                   	pop    %ebp
  80004f:	c3                   	ret    

00800050 <cli>:
  800050:	55                   	push   %ebp
  800051:	89 e5                	mov    %esp,%ebp
  800053:	e8 d2 00 00 00       	call   80012a <__x86.get_pc_thunk.ax>
  800058:	05 a8 af 04 00       	add    $0x4afa8,%eax
  80005d:	fa                   	cli    
  80005e:	90                   	nop
  80005f:	5d                   	pop    %ebp
  800060:	c3                   	ret    

00800061 <add_irq_handle>:
  800061:	55                   	push   %ebp
  800062:	89 e5                	mov    %esp,%ebp
  800064:	53                   	push   %ebx
  800065:	83 ec 04             	sub    $0x4,%esp
  800068:	e8 bd 00 00 00       	call   80012a <__x86.get_pc_thunk.ax>
  80006d:	05 93 af 04 00       	add    $0x4af93,%eax
  800072:	83 ec 04             	sub    $0x4,%esp
  800075:	ff 75 0c             	pushl  0xc(%ebp)
  800078:	ff 75 08             	pushl  0x8(%ebp)
  80007b:	6a 00                	push   $0x0
  80007d:	89 c3                	mov    %eax,%ebx
  80007f:	e8 ae 00 00 00       	call   800132 <syscall>
  800084:	83 c4 10             	add    $0x10,%esp
  800087:	90                   	nop
  800088:	8b 5d fc             	mov    -0x4(%ebp),%ebx
  80008b:	c9                   	leave  
  80008c:	c3                   	ret    

0080008d <game_init>:
  80008d:	55                   	push   %ebp
  80008e:	89 e5                	mov    %esp,%ebp
  800090:	53                   	push   %ebx
  800091:	83 ec 04             	sub    $0x4,%esp
  800094:	e8 95 00 00 00       	call   80012e <__x86.get_pc_thunk.bx>
  800099:	81 c3 67 af 04 00    	add    $0x4af67,%ebx
  80009f:	e8 45 06 00 00       	call   8006e9 <init_timer>
  8000a4:	83 ec 08             	sub    $0x8,%esp
  8000a7:	c7 c0 f4 0b 81 00    	mov    $0x810bf4,%eax
  8000ad:	50                   	push   %eax
  8000ae:	6a 00                	push   $0x0
  8000b0:	e8 ac ff ff ff       	call   800061 <add_irq_handle>
  8000b5:	83 c4 10             	add    $0x10,%esp
  8000b8:	83 ec 08             	sub    $0x8,%esp
  8000bb:	c7 c0 69 fd 80 00    	mov    $0x80fd69,%eax
  8000c1:	50                   	push   %eax
  8000c2:	6a 01                	push   $0x1
  8000c4:	e8 98 ff ff ff       	call   800061 <add_irq_handle>
  8000c9:	83 c4 10             	add    $0x10,%esp
  8000cc:	8d 83 28 65 ff ff    	lea    -0x9ad8(%ebx),%eax
  8000d2:	50                   	push   %eax
  8000d3:	6a 12                	push   $0x12
  8000d5:	8d 83 a0 64 ff ff    	lea    -0x9b60(%ebx),%eax
  8000db:	50                   	push   %eax
  8000dc:	8d 83 b4 64 ff ff    	lea    -0x9b4c(%ebx),%eax
  8000e2:	50                   	push   %eax
  8000e3:	e8 98 23 03 00       	call   832480 <printf>
  8000e8:	83 c4 10             	add    $0x10,%esp
  8000eb:	e8 3b d5 00 00       	call   80d62b <main_loop>
  8000f0:	e8 5b ff ff ff       	call   800050 <cli>
  8000f5:	83 ec 0c             	sub    $0xc,%esp
  8000f8:	8d 83 de 64 ff ff    	lea    -0x9b22(%ebx),%eax
  8000fe:	50                   	push   %eax
  8000ff:	8d 83 28 65 ff ff    	lea    -0x9ad8(%ebx),%eax
  800105:	50                   	push   %eax
  800106:	6a 16                	push   $0x16
  800108:	8d 83 a0 64 ff ff    	lea    -0x9b60(%ebx),%eax
  80010e:	50                   	push   %eax
  80010f:	8d 83 e0 64 ff ff    	lea    -0x9b20(%ebx),%eax
  800115:	50                   	push   %eax
  800116:	e8 65 23 03 00       	call   832480 <printf>
  80011b:	83 c4 20             	add    $0x20,%esp
  80011e:	b8 01 00 00 00       	mov    $0x1,%eax
  800123:	82 90 8b 5d fc c9 c3 	adcb   $0xc3,-0x3603a275(%eax)

0080012a <__x86.get_pc_thunk.ax>:
  80012a:	8b 04 24             	mov    (%esp),%eax
  80012d:	c3                   	ret    

0080012e <__x86.get_pc_thunk.bx>:
  80012e:	8b 1c 24             	mov    (%esp),%ebx
  800131:	c3                   	ret    

00800132 <syscall>:
  800132:	55                   	push   %ebp
  800133:	89 e5                	mov    %esp,%ebp
  800135:	53                   	push   %ebx
  800136:	83 ec 10             	sub    $0x10,%esp
  800139:	e8 ec ff ff ff       	call   80012a <__x86.get_pc_thunk.ax>
  80013e:	05 c2 ae 04 00       	add    $0x4aec2,%eax
  800143:	8d 45 08             	lea    0x8(%ebp),%eax
  800146:	89 45 f8             	mov    %eax,-0x8(%ebp)
  800149:	8b 45 f8             	mov    -0x8(%ebp),%eax
  80014c:	8b 00                	mov    (%eax),%eax
  80014e:	8b 55 f8             	mov    -0x8(%ebp),%edx
  800151:	83 c2 04             	add    $0x4,%edx
  800154:	8b 1a                	mov    (%edx),%ebx
  800156:	8b 55 f8             	mov    -0x8(%ebp),%edx
  800159:	83 c2 08             	add    $0x8,%edx
  80015c:	8b 0a                	mov    (%edx),%ecx
  80015e:	8b 55 f8             	mov    -0x8(%ebp),%edx
  800161:	83 c2 0c             	add    $0xc,%edx
  800164:	8b 12                	mov    (%edx),%edx
  800166:	cd 80                	int    $0x80
  800168:	89 45 f4             	mov    %eax,-0xc(%ebp)
  80016b:	8b 45 f4             	mov    -0xc(%ebp),%eax
  80016e:	83 c4 10             	add    $0x10,%esp
  800171:	5b                   	pop    %ebx
  800172:	5d                   	pop    %ebp
  800173:	c3                   	ret    

00800174 <_exit>:
  800174:	55                   	push   %ebp
  800175:	89 e5                	mov    %esp,%ebp
  800177:	53                   	push   %ebx
  800178:	83 ec 04             	sub    $0x4,%esp
  80017b:	e8 aa ff ff ff       	call   80012a <__x86.get_pc_thunk.ax>
  800180:	05 80 ae 04 00       	add    $0x4ae80,%eax
  800185:	8d 90 78 65 ff ff    	lea    -0x9a88(%eax),%edx
  80018b:	52                   	push   %edx
  80018c:	6a 0e                	push   $0xe
  80018e:	8d 90 34 65 ff ff    	lea    -0x9acc(%eax),%edx
  800194:	52                   	push   %edx
  800195:	8d 90 50 65 ff ff    	lea    -0x9ab0(%eax),%edx
  80019b:	52                   	push   %edx
  80019c:	89 c3                	mov    %eax,%ebx
  80019e:	e8 dd 22 03 00       	call   832480 <printf>
  8001a3:	83 c4 10             	add    $0x10,%esp
  8001a6:	83 7d 08 00          	cmpl   $0x0,0x8(%ebp)
  8001aa:	74 06                	je     8001b2 <_exit+0x3e>
  8001ac:	b8 01 00 00 00       	mov    $0x1,%eax
  8001b1:	82 90 8b 5d fc c9 c3 	adcb   $0xc3,-0x3603a275(%eax)

008001b8 <open>:
  8001b8:	55                   	push   %ebp
  8001b9:	89 e5                	mov    %esp,%ebp
  8001bb:	e8 6a ff ff ff       	call   80012a <__x86.get_pc_thunk.ax>
  8001c0:	05 40 ae 04 00       	add    $0x4ae40,%eax
  8001c5:	ff 75 0c             	pushl  0xc(%ebp)
  8001c8:	ff 75 08             	pushl  0x8(%ebp)
  8001cb:	6a 05                	push   $0x5
  8001cd:	e8 60 ff ff ff       	call   800132 <syscall>
  8001d2:	83 c4 0c             	add    $0xc,%esp
  8001d5:	c9                   	leave  
  8001d6:	c3                   	ret    

008001d7 <read>:
  8001d7:	55                   	push   %ebp
  8001d8:	89 e5                	mov    %esp,%ebp
  8001da:	e8 4b ff ff ff       	call   80012a <__x86.get_pc_thunk.ax>
  8001df:	05 21 ae 04 00       	add    $0x4ae21,%eax
  8001e4:	ff 75 10             	pushl  0x10(%ebp)
  8001e7:	ff 75 0c             	pushl  0xc(%ebp)
  8001ea:	ff 75 08             	pushl  0x8(%ebp)
  8001ed:	6a 03                	push   $0x3
  8001ef:	e8 3e ff ff ff       	call   800132 <syscall>
  8001f4:	83 c4 10             	add    $0x10,%esp
  8001f7:	c9                   	leave  
  8001f8:	c3                   	ret    

008001f9 <write>:
  8001f9:	55                   	push   %ebp
  8001fa:	89 e5                	mov    %esp,%ebp
  8001fc:	e8 29 ff ff ff       	call   80012a <__x86.get_pc_thunk.ax>
  800201:	05 ff ad 04 00       	add    $0x4adff,%eax
  800206:	ff 75 10             	pushl  0x10(%ebp)
  800209:	ff 75 0c             	pushl  0xc(%ebp)
  80020c:	ff 75 08             	pushl  0x8(%ebp)
  80020f:	6a 04                	push   $0x4
  800211:	e8 1c ff ff ff       	call   800132 <syscall>
  800216:	83 c4 10             	add    $0x10,%esp
  800219:	c9                   	leave  
  80021a:	c3                   	ret    

0080021b <lseek>:
  80021b:	55                   	push   %ebp
  80021c:	89 e5                	mov    %esp,%ebp
  80021e:	e8 07 ff ff ff       	call   80012a <__x86.get_pc_thunk.ax>
  800223:	05 dd ad 04 00       	add    $0x4addd,%eax
  800228:	ff 75 10             	pushl  0x10(%ebp)
  80022b:	ff 75 0c             	pushl  0xc(%ebp)
  80022e:	ff 75 08             	pushl  0x8(%ebp)
  800231:	6a 13                	push   $0x13
  800233:	e8 fa fe ff ff       	call   800132 <syscall>
  800238:	83 c4 10             	add    $0x10,%esp
  80023b:	c9                   	leave  
  80023c:	c3                   	ret    

0080023d <sbrk>:
  80023d:	55                   	push   %ebp
  80023e:	89 e5                	mov    %esp,%ebp
  800240:	53                   	push   %ebx
  800241:	83 ec 10             	sub    $0x10,%esp
  800244:	e8 e5 fe ff ff       	call   80012e <__x86.get_pc_thunk.bx>
  800249:	81 c3 b7 ad 04 00    	add    $0x4adb7,%ebx
  80024f:	8b 83 a0 15 00 00    	mov    0x15a0(%ebx),%eax
  800255:	85 c0                	test   %eax,%eax
  800257:	75 0c                	jne    800265 <sbrk+0x28>
  800259:	c7 c0 e8 39 86 00    	mov    $0x8639e8,%eax
  80025f:	89 83 a0 15 00 00    	mov    %eax,0x15a0(%ebx)
  800265:	8b 93 a0 15 00 00    	mov    0x15a0(%ebx),%edx
  80026b:	8b 45 08             	mov    0x8(%ebp),%eax
  80026e:	01 d0                	add    %edx,%eax
  800270:	50                   	push   %eax
  800271:	6a 2d                	push   $0x2d
  800273:	e8 ba fe ff ff       	call   800132 <syscall>
  800278:	83 c4 08             	add    $0x8,%esp
  80027b:	85 c0                	test   %eax,%eax
  80027d:	74 06                	je     800285 <sbrk+0x48>
  80027f:	b8 01 00 00 00       	mov    $0x1,%eax
  800284:	82 8b 83 a0 15 00 00 	orb    $0x0,0x15a083(%ebx)
  80028b:	89 45 f8             	mov    %eax,-0x8(%ebp)
  80028e:	8b 93 a0 15 00 00    	mov    0x15a0(%ebx),%edx
  800294:	8b 45 08             	mov    0x8(%ebp),%eax
  800297:	01 d0                	add    %edx,%eax
  800299:	89 83 a0 15 00 00    	mov    %eax,0x15a0(%ebx)
  80029f:	8b 45 f8             	mov    -0x8(%ebp),%eax
  8002a2:	8b 5d fc             	mov    -0x4(%ebp),%ebx
  8002a5:	c9                   	leave  
  8002a6:	c3                   	ret    

008002a7 <close>:
  8002a7:	55                   	push   %ebp
  8002a8:	89 e5                	mov    %esp,%ebp
  8002aa:	e8 7b fe ff ff       	call   80012a <__x86.get_pc_thunk.ax>
  8002af:	05 51 ad 04 00       	add    $0x4ad51,%eax
  8002b4:	ff 75 08             	pushl  0x8(%ebp)
  8002b7:	6a 06                	push   $0x6
  8002b9:	e8 74 fe ff ff       	call   800132 <syscall>
  8002be:	83 c4 08             	add    $0x8,%esp
  8002c1:	c9                   	leave  
  8002c2:	c3                   	ret    

008002c3 <fstat>:
  8002c3:	55                   	push   %ebp
  8002c4:	89 e5                	mov    %esp,%ebp
  8002c6:	e8 5f fe ff ff       	call   80012a <__x86.get_pc_thunk.ax>
  8002cb:	05 35 ad 04 00       	add    $0x4ad35,%eax
  8002d0:	8b 45 0c             	mov    0xc(%ebp),%eax
  8002d3:	c7 40 04 00 20 00 00 	movl   $0x2000,0x4(%eax)
  8002da:	b8 00 00 00 00       	mov    $0x0,%eax
  8002df:	5d                   	pop    %ebp
  8002e0:	c3                   	ret    

008002e1 <isatty>:
  8002e1:	55                   	push   %ebp
  8002e2:	89 e5                	mov    %esp,%ebp
  8002e4:	e8 41 fe ff ff       	call   80012a <__x86.get_pc_thunk.ax>
  8002e9:	05 17 ad 04 00       	add    $0x4ad17,%eax
  8002ee:	b8 00 00 00 00       	mov    $0x0,%eax
  8002f3:	5d                   	pop    %ebp
  8002f4:	c3                   	ret    

008002f5 <cli>:
  8002f5:	55                   	push   %ebp
  8002f6:	89 e5                	mov    %esp,%ebp
  8002f8:	e8 2d fe ff ff       	call   80012a <__x86.get_pc_thunk.ax>
  8002fd:	05 03 ad 04 00       	add    $0x4ad03,%eax
  800302:	fa                   	cli    
  800303:	90                   	nop
  800304:	5d                   	pop    %ebp
  800305:	c3                   	ret    

00800306 <draw_pixel>:
  800306:	55                   	push   %ebp
  800307:	89 e5                	mov    %esp,%ebp
  800309:	53                   	push   %ebx
  80030a:	83 ec 04             	sub    $0x4,%esp
  80030d:	e8 1c fe ff ff       	call   80012e <__x86.get_pc_thunk.bx>
  800312:	81 c3 ee ac 04 00    	add    $0x4acee,%ebx
  800318:	83 7d 08 00          	cmpl   $0x0,0x8(%ebp)
  80031c:	78 18                	js     800336 <draw_pixel+0x30>
  80031e:	83 7d 0c 00          	cmpl   $0x0,0xc(%ebp)
  800322:	78 12                	js     800336 <draw_pixel+0x30>
  800324:	81 7d 08 c7 00 00 00 	cmpl   $0xc7,0x8(%ebp)
  80032b:	7f 09                	jg     800336 <draw_pixel+0x30>
  80032d:	81 7d 0c 3f 01 00 00 	cmpl   $0x13f,0xc(%ebp)
  800334:	7e 34                	jle    80036a <draw_pixel+0x64>
  800336:	e8 ba ff ff ff       	call   8002f5 <cli>
  80033b:	83 ec 0c             	sub    $0xc,%esp
  80033e:	8d 83 80 65 ff ff    	lea    -0x9a80(%ebx),%eax
  800344:	50                   	push   %eax
  800345:	8d 83 54 66 ff ff    	lea    -0x99ac(%ebx),%eax
  80034b:	50                   	push   %eax
  80034c:	6a 0f                	push   $0xf
  80034e:	8d 83 b4 65 ff ff    	lea    -0x9a4c(%ebx),%eax
  800354:	50                   	push   %eax
  800355:	8d 83 d0 65 ff ff    	lea    -0x9a30(%ebx),%eax
  80035b:	50                   	push   %eax
  80035c:	e8 1f 21 03 00       	call   832480 <printf>
  800361:	83 c4 20             	add    $0x20,%esp
  800364:	b8 01 00 00 00       	mov    $0x1,%eax
  800369:	82 8b 83 20 04 00 00 	orb    $0x0,0x42083(%ebx)
  800370:	8b 55 08             	mov    0x8(%ebp),%edx
  800373:	89 d1                	mov    %edx,%ecx
  800375:	c1 e1 08             	shl    $0x8,%ecx
  800378:	8b 55 08             	mov    0x8(%ebp),%edx
  80037b:	c1 e2 06             	shl    $0x6,%edx
  80037e:	01 d1                	add    %edx,%ecx
  800380:	8b 55 0c             	mov    0xc(%ebp),%edx
  800383:	01 ca                	add    %ecx,%edx
  800385:	01 d0                	add    %edx,%eax
  800387:	8b 55 10             	mov    0x10(%ebp),%edx
  80038a:	88 10                	mov    %dl,(%eax)
  80038c:	90                   	nop
  80038d:	8b 5d fc             	mov    -0x4(%ebp),%ebx
  800390:	c9                   	leave  
  800391:	c3                   	ret    

00800392 <prepare_buffer>:
  800392:	55                   	push   %ebp
  800393:	89 e5                	mov    %esp,%ebp
  800395:	53                   	push   %ebx
  800396:	83 ec 04             	sub    $0x4,%esp
  800399:	e8 8c fd ff ff       	call   80012a <__x86.get_pc_thunk.ax>
  80039e:	05 62 ac 04 00       	add    $0x4ac62,%eax
  8003a3:	8b 90 20 04 00 00    	mov    0x420(%eax),%edx
  8003a9:	83 ec 04             	sub    $0x4,%esp
  8003ac:	68 00 fa 00 00       	push   $0xfa00
  8003b1:	6a 00                	push   $0x0
  8003b3:	52                   	push   %edx
  8003b4:	89 c3                	mov    %eax,%ebx
  8003b6:	e8 92 1f 03 00       	call   83234d <memset>
  8003bb:	83 c4 10             	add    $0x10,%esp
  8003be:	90                   	nop
  8003bf:	8b 5d fc             	mov    -0x4(%ebp),%ebx
  8003c2:	c9                   	leave  
  8003c3:	c3                   	ret    

008003c4 <display_buffer>:
  8003c4:	55                   	push   %ebp
  8003c5:	89 e5                	mov    %esp,%ebp
  8003c7:	57                   	push   %edi
  8003c8:	56                   	push   %esi
  8003c9:	53                   	push   %ebx
  8003ca:	e8 5b fd ff ff       	call   80012a <__x86.get_pc_thunk.ax>
  8003cf:	05 31 ac 04 00       	add    $0x4ac31,%eax
  8003d4:	8b 80 20 04 00 00    	mov    0x420(%eax),%eax
  8003da:	ba 80 3e 00 00       	mov    $0x3e80,%edx
  8003df:	bb 00 00 0a 00       	mov    $0xa0000,%ebx
  8003e4:	89 d1                	mov    %edx,%ecx
  8003e6:	89 c6                	mov    %eax,%esi
  8003e8:	89 df                	mov    %ebx,%edi
  8003ea:	fc                   	cld    
  8003eb:	f3 a5                	rep movsl %ds:(%esi),%es:(%edi)
  8003ed:	90                   	nop
  8003ee:	5b                   	pop    %ebx
  8003ef:	5e                   	pop    %esi
  8003f0:	5f                   	pop    %edi
  8003f1:	5d                   	pop    %ebp
  8003f2:	c3                   	ret    

008003f3 <draw_character>:
  8003f3:	55                   	push   %ebp
  8003f4:	89 e5                	mov    %esp,%ebp
  8003f6:	53                   	push   %ebx
  8003f7:	83 ec 24             	sub    $0x24,%esp
  8003fa:	e8 2f fd ff ff       	call   80012e <__x86.get_pc_thunk.bx>
  8003ff:	81 c3 01 ac 04 00    	add    $0x4ac01,%ebx
  800405:	8b 45 08             	mov    0x8(%ebp),%eax
  800408:	88 45 e4             	mov    %al,-0x1c(%ebp)
  80040b:	80 7d e4 00          	cmpb   $0x0,-0x1c(%ebp)
  80040f:	79 34                	jns    800445 <draw_character+0x52>
  800411:	e8 df fe ff ff       	call   8002f5 <cli>
  800416:	83 ec 0c             	sub    $0xc,%esp
  800419:	8d 83 18 66 ff ff    	lea    -0x99e8(%ebx),%eax
  80041f:	50                   	push   %eax
  800420:	8d 83 44 66 ff ff    	lea    -0x99bc(%ebx),%eax
  800426:	50                   	push   %eax
  800427:	6a 18                	push   $0x18
  800429:	8d 83 29 66 ff ff    	lea    -0x99d7(%ebx),%eax
  80042f:	50                   	push   %eax
  800430:	8d 83 d0 65 ff ff    	lea    -0x9a30(%ebx),%eax
  800436:	50                   	push   %eax
  800437:	e8 44 20 03 00       	call   832480 <printf>
  80043c:	83 c4 20             	add    $0x20,%esp
  80043f:	b8 01 00 00 00       	mov    $0x1,%eax
  800444:	82 0f be             	orb    $0xbe,(%edi)
  800447:	45                   	inc    %ebp
  800448:	e4 8d                	in     $0x8d,%al
  80044a:	14 c5                	adc    $0xc5,%al
  80044c:	00 00                	add    %al,(%eax)
  80044e:	00 00                	add    %al,(%eax)
  800450:	c7 c0 20 b0 84 00    	mov    $0x84b020,%eax
  800456:	01 d0                	add    %edx,%eax
  800458:	89 45 ec             	mov    %eax,-0x14(%ebp)
  80045b:	c7 45 f4 00 00 00 00 	movl   $0x0,-0xc(%ebp)
  800462:	eb 55                	jmp    8004b9 <draw_character+0xc6>
  800464:	c7 45 f0 00 00 00 00 	movl   $0x0,-0x10(%ebp)
  80046b:	eb 42                	jmp    8004af <draw_character+0xbc>
  80046d:	8b 55 f4             	mov    -0xc(%ebp),%edx
  800470:	8b 45 ec             	mov    -0x14(%ebp),%eax
  800473:	01 d0                	add    %edx,%eax
  800475:	0f b6 00             	movzbl (%eax),%eax
  800478:	0f be d0             	movsbl %al,%edx
  80047b:	8b 45 f0             	mov    -0x10(%ebp),%eax
  80047e:	89 c1                	mov    %eax,%ecx
  800480:	d3 fa                	sar    %cl,%edx
  800482:	89 d0                	mov    %edx,%eax
  800484:	83 e0 01             	and    $0x1,%eax
  800487:	85 c0                	test   %eax,%eax
  800489:	74 20                	je     8004ab <draw_character+0xb8>
  80048b:	8b 55 10             	mov    0x10(%ebp),%edx
  80048e:	8b 45 f0             	mov    -0x10(%ebp),%eax
  800491:	01 c2                	add    %eax,%edx
  800493:	8b 4d 0c             	mov    0xc(%ebp),%ecx
  800496:	8b 45 f4             	mov    -0xc(%ebp),%eax
  800499:	01 c8                	add    %ecx,%eax
  80049b:	83 ec 04             	sub    $0x4,%esp
  80049e:	ff 75 14             	pushl  0x14(%ebp)
  8004a1:	52                   	push   %edx
  8004a2:	50                   	push   %eax
  8004a3:	e8 5e fe ff ff       	call   800306 <draw_pixel>
  8004a8:	83 c4 10             	add    $0x10,%esp
  8004ab:	83 45 f0 01          	addl   $0x1,-0x10(%ebp)
  8004af:	83 7d f0 07          	cmpl   $0x7,-0x10(%ebp)
  8004b3:	7e b8                	jle    80046d <draw_character+0x7a>
  8004b5:	83 45 f4 01          	addl   $0x1,-0xc(%ebp)
  8004b9:	83 7d f4 07          	cmpl   $0x7,-0xc(%ebp)
  8004bd:	7e a5                	jle    800464 <draw_character+0x71>
  8004bf:	90                   	nop
  8004c0:	8b 5d fc             	mov    -0x4(%ebp),%ebx
  8004c3:	c9                   	leave  
  8004c4:	c3                   	ret    

008004c5 <draw_string>:
  8004c5:	55                   	push   %ebp
  8004c6:	89 e5                	mov    %esp,%ebp
  8004c8:	83 ec 08             	sub    $0x8,%esp
  8004cb:	e8 5a fc ff ff       	call   80012a <__x86.get_pc_thunk.ax>
  8004d0:	05 30 ab 04 00       	add    $0x4ab30,%eax
  8004d5:	eb 3f                	jmp    800516 <draw_string+0x51>
  8004d7:	8b 45 08             	mov    0x8(%ebp),%eax
  8004da:	8d 50 01             	lea    0x1(%eax),%edx
  8004dd:	89 55 08             	mov    %edx,0x8(%ebp)
  8004e0:	0f b6 00             	movzbl (%eax),%eax
  8004e3:	0f be c0             	movsbl %al,%eax
  8004e6:	ff 75 14             	pushl  0x14(%ebp)
  8004e9:	ff 75 10             	pushl  0x10(%ebp)
  8004ec:	ff 75 0c             	pushl  0xc(%ebp)
  8004ef:	50                   	push   %eax
  8004f0:	e8 fe fe ff ff       	call   8003f3 <draw_character>
  8004f5:	83 c4 10             	add    $0x10,%esp
  8004f8:	8b 45 10             	mov    0x10(%ebp),%eax
  8004fb:	83 c0 08             	add    $0x8,%eax
  8004fe:	3d 3f 01 00 00       	cmp    $0x13f,%eax
  800503:	7e 0d                	jle    800512 <draw_string+0x4d>
  800505:	83 45 0c 08          	addl   $0x8,0xc(%ebp)
  800509:	c7 45 10 00 00 00 00 	movl   $0x0,0x10(%ebp)
  800510:	eb 04                	jmp    800516 <draw_string+0x51>
  800512:	83 45 10 08          	addl   $0x8,0x10(%ebp)
  800516:	8b 45 08             	mov    0x8(%ebp),%eax
  800519:	0f b6 00             	movzbl (%eax),%eax
  80051c:	84 c0                	test   %al,%al
  80051e:	75 b7                	jne    8004d7 <draw_string+0x12>
  800520:	90                   	nop
  800521:	c9                   	leave  
  800522:	c3                   	ret    

00800523 <in_byte>:
  800523:	55                   	push   %ebp
  800524:	89 e5                	mov    %esp,%ebp
  800526:	83 ec 14             	sub    $0x14,%esp
  800529:	e8 fc fb ff ff       	call   80012a <__x86.get_pc_thunk.ax>
  80052e:	05 d2 aa 04 00       	add    $0x4aad2,%eax
  800533:	8b 45 08             	mov    0x8(%ebp),%eax
  800536:	66 89 45 ec          	mov    %ax,-0x14(%ebp)
  80053a:	0f b7 45 ec          	movzwl -0x14(%ebp),%eax
  80053e:	89 c2                	mov    %eax,%edx
  800540:	ec                   	in     (%dx),%al
  800541:	88 45 ff             	mov    %al,-0x1(%ebp)
  800544:	0f b6 45 ff          	movzbl -0x1(%ebp),%eax
  800548:	c9                   	leave  
  800549:	c3                   	ret    

0080054a <out_byte>:
  80054a:	55                   	push   %ebp
  80054b:	89 e5                	mov    %esp,%ebp
  80054d:	83 ec 08             	sub    $0x8,%esp
  800550:	e8 d5 fb ff ff       	call   80012a <__x86.get_pc_thunk.ax>
  800555:	05 ab aa 04 00       	add    $0x4aaab,%eax
  80055a:	8b 55 08             	mov    0x8(%ebp),%edx
  80055d:	8b 45 0c             	mov    0xc(%ebp),%eax
  800560:	66 89 55 fc          	mov    %dx,-0x4(%ebp)
  800564:	88 45 f8             	mov    %al,-0x8(%ebp)
  800567:	0f b6 45 f8          	movzbl -0x8(%ebp),%eax
  80056b:	0f b7 55 fc          	movzwl -0x4(%ebp),%edx
  80056f:	ee                   	out    %al,(%dx)
  800570:	90                   	nop
  800571:	c9                   	leave  
  800572:	c3                   	ret    

00800573 <write_palette>:
  800573:	55                   	push   %ebp
  800574:	89 e5                	mov    %esp,%ebp
  800576:	83 ec 10             	sub    $0x10,%esp
  800579:	e8 ac fb ff ff       	call   80012a <__x86.get_pc_thunk.ax>
  80057e:	05 82 aa 04 00       	add    $0x4aa82,%eax
  800583:	8b 45 08             	mov    0x8(%ebp),%eax
  800586:	89 45 f8             	mov    %eax,-0x8(%ebp)
  800589:	6a 00                	push   $0x0
  80058b:	68 c8 03 00 00       	push   $0x3c8
  800590:	e8 b5 ff ff ff       	call   80054a <out_byte>
  800595:	83 c4 08             	add    $0x8,%esp
  800598:	c7 45 fc 00 00 00 00 	movl   $0x0,-0x4(%ebp)
  80059f:	eb 78                	jmp    800619 <write_palette+0xa6>
  8005a1:	8b 45 fc             	mov    -0x4(%ebp),%eax
  8005a4:	8d 14 85 00 00 00 00 	lea    0x0(,%eax,4),%edx
  8005ab:	8b 45 f8             	mov    -0x8(%ebp),%eax
  8005ae:	01 d0                	add    %edx,%eax
  8005b0:	0f b6 00             	movzbl (%eax),%eax
  8005b3:	c0 e8 02             	shr    $0x2,%al
  8005b6:	0f be c0             	movsbl %al,%eax
  8005b9:	50                   	push   %eax
  8005ba:	68 c9 03 00 00       	push   $0x3c9
  8005bf:	e8 86 ff ff ff       	call   80054a <out_byte>
  8005c4:	83 c4 08             	add    $0x8,%esp
  8005c7:	8b 45 fc             	mov    -0x4(%ebp),%eax
  8005ca:	8d 14 85 00 00 00 00 	lea    0x0(,%eax,4),%edx
  8005d1:	8b 45 f8             	mov    -0x8(%ebp),%eax
  8005d4:	01 d0                	add    %edx,%eax
  8005d6:	0f b6 40 01          	movzbl 0x1(%eax),%eax
  8005da:	c0 e8 02             	shr    $0x2,%al
  8005dd:	0f be c0             	movsbl %al,%eax
  8005e0:	50                   	push   %eax
  8005e1:	68 c9 03 00 00       	push   $0x3c9
  8005e6:	e8 5f ff ff ff       	call   80054a <out_byte>
  8005eb:	83 c4 08             	add    $0x8,%esp
  8005ee:	8b 45 fc             	mov    -0x4(%ebp),%eax
  8005f1:	8d 14 85 00 00 00 00 	lea    0x0(,%eax,4),%edx
  8005f8:	8b 45 f8             	mov    -0x8(%ebp),%eax
  8005fb:	01 d0                	add    %edx,%eax
  8005fd:	0f b6 40 02          	movzbl 0x2(%eax),%eax
  800601:	c0 e8 02             	shr    $0x2,%al
  800604:	0f be c0             	movsbl %al,%eax
  800607:	50                   	push   %eax
  800608:	68 c9 03 00 00       	push   $0x3c9
  80060d:	e8 38 ff ff ff       	call   80054a <out_byte>
  800612:	83 c4 08             	add    $0x8,%esp
  800615:	83 45 fc 01          	addl   $0x1,-0x4(%ebp)
  800619:	8b 45 fc             	mov    -0x4(%ebp),%eax
  80061c:	3b 45 0c             	cmp    0xc(%ebp),%eax
  80061f:	7c 80                	jl     8005a1 <write_palette+0x2e>
  800621:	90                   	nop
  800622:	c9                   	leave  
  800623:	c3                   	ret    

00800624 <read_palette>:
  800624:	55                   	push   %ebp
  800625:	89 e5                	mov    %esp,%ebp
  800627:	53                   	push   %ebx
  800628:	83 ec 14             	sub    $0x14,%esp
  80062b:	e8 fe fa ff ff       	call   80012e <__x86.get_pc_thunk.bx>
  800630:	81 c3 d0 a9 04 00    	add    $0x4a9d0,%ebx
  800636:	6a 00                	push   $0x0
  800638:	68 c7 03 00 00       	push   $0x3c7
  80063d:	e8 08 ff ff ff       	call   80054a <out_byte>
  800642:	83 c4 08             	add    $0x8,%esp
  800645:	c7 45 f4 00 00 00 00 	movl   $0x0,-0xc(%ebp)
  80064c:	eb 52                	jmp    8006a0 <read_palette+0x7c>
  80064e:	68 c9 03 00 00       	push   $0x3c9
  800653:	e8 cb fe ff ff       	call   800523 <in_byte>
  800658:	83 c4 04             	add    $0x4,%esp
  80065b:	88 45 f3             	mov    %al,-0xd(%ebp)
  80065e:	68 c9 03 00 00       	push   $0x3c9
  800663:	e8 bb fe ff ff       	call   800523 <in_byte>
  800668:	83 c4 04             	add    $0x4,%esp
  80066b:	88 45 f2             	mov    %al,-0xe(%ebp)
  80066e:	68 c9 03 00 00       	push   $0x3c9
  800673:	e8 ab fe ff ff       	call   800523 <in_byte>
  800678:	83 c4 04             	add    $0x4,%esp
  80067b:	88 45 f1             	mov    %al,-0xf(%ebp)
  80067e:	0f b6 4d f1          	movzbl -0xf(%ebp),%ecx
  800682:	0f b6 55 f2          	movzbl -0xe(%ebp),%edx
  800686:	0f b6 45 f3          	movzbl -0xd(%ebp),%eax
  80068a:	51                   	push   %ecx
  80068b:	52                   	push   %edx
  80068c:	50                   	push   %eax
  80068d:	8d 83 5f 66 ff ff    	lea    -0x99a1(%ebx),%eax
  800693:	50                   	push   %eax
  800694:	e8 e7 1d 03 00       	call   832480 <printf>
  800699:	83 c4 10             	add    $0x10,%esp
  80069c:	83 45 f4 01          	addl   $0x1,-0xc(%ebp)
  8006a0:	81 7d f4 ff 00 00 00 	cmpl   $0xff,-0xc(%ebp)
  8006a7:	7e a5                	jle    80064e <read_palette+0x2a>
  8006a9:	90                   	nop
  8006aa:	8b 5d fc             	mov    -0x4(%ebp),%ebx
  8006ad:	c9                   	leave  
  8006ae:	c3                   	ret    

008006af <out_byte>:
  8006af:	55                   	push   %ebp
  8006b0:	89 e5                	mov    %esp,%ebp
  8006b2:	83 ec 08             	sub    $0x8,%esp
  8006b5:	e8 70 fa ff ff       	call   80012a <__x86.get_pc_thunk.ax>
  8006ba:	05 46 a9 04 00       	add    $0x4a946,%eax
  8006bf:	8b 55 08             	mov    0x8(%ebp),%edx
  8006c2:	8b 45 0c             	mov    0xc(%ebp),%eax
  8006c5:	66 89 55 fc          	mov    %dx,-0x4(%ebp)
  8006c9:	88 45 f8             	mov    %al,-0x8(%ebp)
  8006cc:	0f b6 45 f8          	movzbl -0x8(%ebp),%eax
  8006d0:	0f b7 55 fc          	movzwl -0x4(%ebp),%edx
  8006d4:	ee                   	out    %al,(%dx)
  8006d5:	90                   	nop
  8006d6:	c9                   	leave  
  8006d7:	c3                   	ret    

008006d8 <cli>:
  8006d8:	55                   	push   %ebp
  8006d9:	89 e5                	mov    %esp,%ebp
  8006db:	e8 4a fa ff ff       	call   80012a <__x86.get_pc_thunk.ax>
  8006e0:	05 20 a9 04 00       	add    $0x4a920,%eax
  8006e5:	fa                   	cli    
  8006e6:	90                   	nop
  8006e7:	5d                   	pop    %ebp
  8006e8:	c3                   	ret    

008006e9 <init_timer>:
  8006e9:	55                   	push   %ebp
  8006ea:	89 e5                	mov    %esp,%ebp
  8006ec:	53                   	push   %ebx
  8006ed:	83 ec 14             	sub    $0x14,%esp
  8006f0:	e8 39 fa ff ff       	call   80012e <__x86.get_pc_thunk.bx>
  8006f5:	81 c3 0b a9 04 00    	add    $0x4a90b,%ebx
  8006fb:	c7 45 f4 9b 2e 00 00 	movl   $0x2e9b,-0xc(%ebp)
  800702:	81 7d f4 ff ff 00 00 	cmpl   $0xffff,-0xc(%ebp)
  800709:	7e 34                	jle    80073f <init_timer+0x56>
  80070b:	e8 c8 ff ff ff       	call   8006d8 <cli>
  800710:	83 ec 0c             	sub    $0xc,%esp
  800713:	8d 83 78 66 ff ff    	lea    -0x9988(%ebx),%eax
  800719:	50                   	push   %eax
  80071a:	8d 83 ec 66 ff ff    	lea    -0x9914(%ebx),%eax
  800720:	50                   	push   %eax
  800721:	6a 08                	push   $0x8
  800723:	8d 83 88 66 ff ff    	lea    -0x9978(%ebx),%eax
  800729:	50                   	push   %eax
  80072a:	8d 83 a4 66 ff ff    	lea    -0x995c(%ebx),%eax
  800730:	50                   	push   %eax
  800731:	e8 4a 1d 03 00       	call   832480 <printf>
  800736:	83 c4 20             	add    $0x20,%esp
  800739:	b8 01 00 00 00       	mov    $0x1,%eax
  80073e:	82 83 ec 08 6a 34 6a 	addb   $0x6a,0x346a08ec(%ebx)
  800745:	43                   	inc    %ebx
  800746:	e8 64 ff ff ff       	call   8006af <out_byte>
  80074b:	83 c4 10             	add    $0x10,%esp
  80074e:	8b 45 f4             	mov    -0xc(%ebp),%eax
  800751:	99                   	cltd   
  800752:	c1 ea 18             	shr    $0x18,%edx
  800755:	01 d0                	add    %edx,%eax
  800757:	0f b6 c0             	movzbl %al,%eax
  80075a:	29 d0                	sub    %edx,%eax
  80075c:	0f be c0             	movsbl %al,%eax
  80075f:	83 ec 08             	sub    $0x8,%esp
  800762:	50                   	push   %eax
  800763:	6a 40                	push   $0x40
  800765:	e8 45 ff ff ff       	call   8006af <out_byte>
  80076a:	83 c4 10             	add    $0x10,%esp
  80076d:	8b 45 f4             	mov    -0xc(%ebp),%eax
  800770:	8d 90 ff 00 00 00    	lea    0xff(%eax),%edx
  800776:	85 c0                	test   %eax,%eax
  800778:	0f 48 c2             	cmovs  %edx,%eax
  80077b:	c1 f8 08             	sar    $0x8,%eax
  80077e:	0f be c0             	movsbl %al,%eax
  800781:	83 ec 08             	sub    $0x8,%esp
  800784:	50                   	push   %eax
  800785:	6a 40                	push   $0x40
  800787:	e8 23 ff ff ff       	call   8006af <out_byte>
  80078c:	83 c4 10             	add    $0x10,%esp
  80078f:	90                   	nop
  800790:	8b 5d fc             	mov    -0x4(%ebp),%ebx
  800793:	c9                   	leave  
  800794:	c3                   	ret    

00800795 <PAL_NPCWalkTo>:
  800795:	55                   	push   %ebp
  800796:	89 e5                	mov    %esp,%ebp
  800798:	53                   	push   %ebx
  800799:	83 ec 24             	sub    $0x24,%esp
  80079c:	e8 8d f9 ff ff       	call   80012e <__x86.get_pc_thunk.bx>
  8007a1:	81 c3 5f a8 04 00    	add    $0x4a85f,%ebx
  8007a7:	8b 45 08             	mov    0x8(%ebp),%eax
  8007aa:	66 89 45 e4          	mov    %ax,-0x1c(%ebp)
  8007ae:	c7 c0 c8 bf 85 00    	mov    $0x85bfc8,%eax
  8007b4:	8b 00                	mov    (%eax),%eax
  8007b6:	8b 40 20             	mov    0x20(%eax),%eax
  8007b9:	0f b7 55 e4          	movzwl -0x1c(%ebp),%edx
  8007bd:	81 c2 ff ff ff 07    	add    $0x7ffffff,%edx
  8007c3:	c1 e2 05             	shl    $0x5,%edx
  8007c6:	01 d0                	add    %edx,%eax
  8007c8:	89 45 f4             	mov    %eax,-0xc(%ebp)
  8007cb:	8b 45 0c             	mov    0xc(%ebp),%eax
  8007ce:	8d 14 00             	lea    (%eax,%eax,1),%edx
  8007d1:	8b 45 14             	mov    0x14(%ebp),%eax
  8007d4:	01 d0                	add    %edx,%eax
  8007d6:	c1 e0 04             	shl    $0x4,%eax
  8007d9:	89 c2                	mov    %eax,%edx
  8007db:	8b 45 f4             	mov    -0xc(%ebp),%eax
  8007de:	0f b7 40 02          	movzwl 0x2(%eax),%eax
  8007e2:	0f b7 c0             	movzwl %ax,%eax
  8007e5:	29 c2                	sub    %eax,%edx
  8007e7:	89 d0                	mov    %edx,%eax
  8007e9:	89 45 f0             	mov    %eax,-0x10(%ebp)
  8007ec:	8b 45 10             	mov    0x10(%ebp),%eax
  8007ef:	8d 14 00             	lea    (%eax,%eax,1),%edx
  8007f2:	8b 45 14             	mov    0x14(%ebp),%eax
  8007f5:	01 d0                	add    %edx,%eax
  8007f7:	8d 14 c5 00 00 00 00 	lea    0x0(,%eax,8),%edx
  8007fe:	8b 45 f4             	mov    -0xc(%ebp),%eax
  800801:	0f b7 40 04          	movzwl 0x4(%eax),%eax
  800805:	0f b7 c0             	movzwl %ax,%eax
  800808:	29 c2                	sub    %eax,%edx
  80080a:	89 d0                	mov    %edx,%eax
  80080c:	89 45 ec             	mov    %eax,-0x14(%ebp)
  80080f:	83 7d ec 00          	cmpl   $0x0,-0x14(%ebp)
  800813:	79 1b                	jns    800830 <PAL_NPCWalkTo+0x9b>
  800815:	83 7d f0 00          	cmpl   $0x0,-0x10(%ebp)
  800819:	79 07                	jns    800822 <PAL_NPCWalkTo+0x8d>
  80081b:	ba 01 00 00 00       	mov    $0x1,%edx
  800820:	eb 05                	jmp    800827 <PAL_NPCWalkTo+0x92>
  800822:	ba 02 00 00 00       	mov    $0x2,%edx
  800827:	8b 45 f4             	mov    -0xc(%ebp),%eax
  80082a:	66 89 50 14          	mov    %dx,0x14(%eax)
  80082e:	eb 19                	jmp    800849 <PAL_NPCWalkTo+0xb4>
  800830:	83 7d f0 00          	cmpl   $0x0,-0x10(%ebp)
  800834:	79 07                	jns    80083d <PAL_NPCWalkTo+0xa8>
  800836:	ba 00 00 00 00       	mov    $0x0,%edx
  80083b:	eb 05                	jmp    800842 <PAL_NPCWalkTo+0xad>
  80083d:	ba 03 00 00 00       	mov    $0x3,%edx
  800842:	8b 45 f4             	mov    -0xc(%ebp),%eax
  800845:	66 89 50 14          	mov    %dx,0x14(%eax)
  800849:	83 ec 0c             	sub    $0xc,%esp
  80084c:	ff 75 f0             	pushl  -0x10(%ebp)
  80084f:	e8 ec f6 02 00       	call   82ff40 <abs>
  800854:	83 c4 10             	add    $0x10,%esp
  800857:	89 c2                	mov    %eax,%edx
  800859:	8b 45 18             	mov    0x18(%ebp),%eax
  80085c:	01 c0                	add    %eax,%eax
  80085e:	39 c2                	cmp    %eax,%edx
  800860:	7c 19                	jl     80087b <PAL_NPCWalkTo+0xe6>
  800862:	83 ec 0c             	sub    $0xc,%esp
  800865:	ff 75 ec             	pushl  -0x14(%ebp)
  800868:	e8 d3 f6 02 00       	call   82ff40 <abs>
  80086d:	83 c4 10             	add    $0x10,%esp
  800870:	89 c2                	mov    %eax,%edx
  800872:	8b 45 18             	mov    0x18(%ebp),%eax
  800875:	01 c0                	add    %eax,%eax
  800877:	39 c2                	cmp    %eax,%edx
  800879:	7d 32                	jge    8008ad <PAL_NPCWalkTo+0x118>
  80087b:	8b 45 0c             	mov    0xc(%ebp),%eax
  80087e:	8d 14 00             	lea    (%eax,%eax,1),%edx
  800881:	8b 45 14             	mov    0x14(%ebp),%eax
  800884:	01 d0                	add    %edx,%eax
  800886:	c1 e0 04             	shl    $0x4,%eax
  800889:	89 c2                	mov    %eax,%edx
  80088b:	8b 45 f4             	mov    -0xc(%ebp),%eax
  80088e:	66 89 50 02          	mov    %dx,0x2(%eax)
  800892:	8b 45 10             	mov    0x10(%ebp),%eax
  800895:	8d 14 00             	lea    (%eax,%eax,1),%edx
  800898:	8b 45 14             	mov    0x14(%ebp),%eax
  80089b:	01 d0                	add    %edx,%eax
  80089d:	8d 14 c5 00 00 00 00 	lea    0x0(,%eax,8),%edx
  8008a4:	8b 45 f4             	mov    -0xc(%ebp),%eax
  8008a7:	66 89 50 04          	mov    %dx,0x4(%eax)
  8008ab:	eb 13                	jmp    8008c0 <PAL_NPCWalkTo+0x12b>
  8008ad:	0f b7 45 e4          	movzwl -0x1c(%ebp),%eax
  8008b1:	83 ec 08             	sub    $0x8,%esp
  8008b4:	ff 75 18             	pushl  0x18(%ebp)
  8008b7:	50                   	push   %eax
  8008b8:	e8 72 20 02 00       	call   82292f <PAL_NPCWalkOneStep>
  8008bd:	83 c4 10             	add    $0x10,%esp
  8008c0:	8b 45 f4             	mov    -0xc(%ebp),%eax
  8008c3:	0f b7 40 02          	movzwl 0x2(%eax),%eax
  8008c7:	0f b7 c0             	movzwl %ax,%eax
  8008ca:	8b 55 0c             	mov    0xc(%ebp),%edx
  8008cd:	8d 0c 12             	lea    (%edx,%edx,1),%ecx
  8008d0:	8b 55 14             	mov    0x14(%ebp),%edx
  8008d3:	01 ca                	add    %ecx,%edx
  8008d5:	c1 e2 04             	shl    $0x4,%edx
  8008d8:	39 d0                	cmp    %edx,%eax
  8008da:	75 2c                	jne    800908 <PAL_NPCWalkTo+0x173>
  8008dc:	8b 45 f4             	mov    -0xc(%ebp),%eax
  8008df:	0f b7 40 04          	movzwl 0x4(%eax),%eax
  8008e3:	0f b7 c0             	movzwl %ax,%eax
  8008e6:	8b 55 10             	mov    0x10(%ebp),%edx
  8008e9:	8d 0c 12             	lea    (%edx,%edx,1),%ecx
  8008ec:	8b 55 14             	mov    0x14(%ebp),%edx
  8008ef:	01 ca                	add    %ecx,%edx
  8008f1:	c1 e2 03             	shl    $0x3,%edx
  8008f4:	39 d0                	cmp    %edx,%eax
  8008f6:	75 10                	jne    800908 <PAL_NPCWalkTo+0x173>
  8008f8:	8b 45 f4             	mov    -0xc(%ebp),%eax
  8008fb:	66 c7 40 16 00 00    	movw   $0x0,0x16(%eax)
  800901:	b8 01 00 00 00       	mov    $0x1,%eax
  800906:	eb 05                	jmp    80090d <PAL_NPCWalkTo+0x178>
  800908:	b8 00 00 00 00       	mov    $0x0,%eax
  80090d:	8b 5d fc             	mov    -0x4(%ebp),%ebx
  800910:	c9                   	leave  
  800911:	c3                   	ret    

00800912 <PAL_PartyWalkTo>:
  800912:	55                   	push   %ebp
  800913:	89 e5                	mov    %esp,%ebp
  800915:	56                   	push   %esi
  800916:	53                   	push   %ebx
  800917:	83 ec 20             	sub    $0x20,%esp
  80091a:	e8 0f f8 ff ff       	call   80012e <__x86.get_pc_thunk.bx>
  80091f:	81 c3 e1 a6 04 00    	add    $0x4a6e1,%ebx
  800925:	8b 45 08             	mov    0x8(%ebp),%eax
  800928:	8d 14 00             	lea    (%eax,%eax,1),%edx
  80092b:	8b 45 10             	mov    0x10(%ebp),%eax
  80092e:	01 d0                	add    %edx,%eax
  800930:	c1 e0 04             	shl    $0x4,%eax
  800933:	89 c2                	mov    %eax,%edx
  800935:	c7 c0 c8 bf 85 00    	mov    $0x85bfc8,%eax
  80093b:	8b 00                	mov    (%eax),%eax
  80093d:	8b 80 ec 43 00 00    	mov    0x43ec(%eax),%eax
  800943:	98                   	cwtl   
  800944:	29 c2                	sub    %eax,%edx
  800946:	c7 c0 c8 bf 85 00    	mov    $0x85bfc8,%eax
  80094c:	8b 00                	mov    (%eax),%eax
  80094e:	8b 80 f0 43 00 00    	mov    0x43f0(%eax),%eax
  800954:	98                   	cwtl   
  800955:	29 c2                	sub    %eax,%edx
  800957:	89 d0                	mov    %edx,%eax
  800959:	89 45 f4             	mov    %eax,-0xc(%ebp)
  80095c:	8b 45 0c             	mov    0xc(%ebp),%eax
  80095f:	8d 14 00             	lea    (%eax,%eax,1),%edx
  800962:	8b 45 10             	mov    0x10(%ebp),%eax
  800965:	01 d0                	add    %edx,%eax
  800967:	8d 14 c5 00 00 00 00 	lea    0x0(,%eax,8),%edx
  80096e:	c7 c0 c8 bf 85 00    	mov    $0x85bfc8,%eax
  800974:	8b 00                	mov    (%eax),%eax
  800976:	8b 80 ec 43 00 00    	mov    0x43ec(%eax),%eax
  80097c:	c1 e8 10             	shr    $0x10,%eax
  80097f:	98                   	cwtl   
  800980:	29 c2                	sub    %eax,%edx
  800982:	c7 c0 c8 bf 85 00    	mov    $0x85bfc8,%eax
  800988:	8b 00                	mov    (%eax),%eax
  80098a:	8b 80 f0 43 00 00    	mov    0x43f0(%eax),%eax
  800990:	c1 e8 10             	shr    $0x10,%eax
  800993:	98                   	cwtl   
  800994:	29 c2                	sub    %eax,%edx
  800996:	89 d0                	mov    %edx,%eax
  800998:	89 45 f0             	mov    %eax,-0x10(%ebp)
  80099b:	c7 45 e0 00 00 00 00 	movl   $0x0,-0x20(%ebp)
  8009a2:	e9 ab 02 00 00       	jmp    800c52 <PAL_PartyWalkTo+0x340>
  8009a7:	e8 0e d5 02 00       	call   82deba <PAL_ProcessEvent>
  8009ac:	eb 12                	jmp    8009c0 <PAL_PartyWalkTo+0xae>
  8009ae:	e8 07 d5 02 00       	call   82deba <PAL_ProcessEvent>
  8009b3:	83 ec 0c             	sub    $0xc,%esp
  8009b6:	6a 01                	push   $0x1
  8009b8:	e8 b1 02 01 00       	call   810c6e <SDL_Delay>
  8009bd:	83 c4 10             	add    $0x10,%esp
  8009c0:	e8 8b 02 01 00       	call   810c50 <SDL_GetTicks>
  8009c5:	3b 45 e0             	cmp    -0x20(%ebp),%eax
  8009c8:	76 e4                	jbe    8009ae <PAL_PartyWalkTo+0x9c>
  8009ca:	e8 81 02 01 00       	call   810c50 <SDL_GetTicks>
  8009cf:	83 c0 64             	add    $0x64,%eax
  8009d2:	89 45 e0             	mov    %eax,-0x20(%ebp)
  8009d5:	c7 45 ec 03 00 00 00 	movl   $0x3,-0x14(%ebp)
  8009dc:	eb 4a                	jmp    800a28 <PAL_PartyWalkTo+0x116>
  8009de:	c7 c0 c8 bf 85 00    	mov    $0x85bfc8,%eax
  8009e4:	8b 08                	mov    (%eax),%ecx
  8009e6:	8b 45 ec             	mov    -0x14(%ebp),%eax
  8009e9:	8d 50 01             	lea    0x1(%eax),%edx
  8009ec:	c7 c0 c8 bf 85 00    	mov    $0x85bfc8,%eax
  8009f2:	8b 30                	mov    (%eax),%esi
  8009f4:	89 d0                	mov    %edx,%eax
  8009f6:	01 c0                	add    %eax,%eax
  8009f8:	01 d0                	add    %edx,%eax
  8009fa:	01 c0                	add    %eax,%eax
  8009fc:	01 c8                	add    %ecx,%eax
  8009fe:	8d 90 20 44 00 00    	lea    0x4420(%eax),%edx
  800a04:	8b 4d ec             	mov    -0x14(%ebp),%ecx
  800a07:	89 c8                	mov    %ecx,%eax
  800a09:	01 c0                	add    %eax,%eax
  800a0b:	01 c8                	add    %ecx,%eax
  800a0d:	01 c0                	add    %eax,%eax
  800a0f:	01 f0                	add    %esi,%eax
  800a11:	05 20 44 00 00       	add    $0x4420,%eax
  800a16:	8b 48 0a             	mov    0xa(%eax),%ecx
  800a19:	89 4a 0a             	mov    %ecx,0xa(%edx)
  800a1c:	0f b7 40 0e          	movzwl 0xe(%eax),%eax
  800a20:	66 89 42 0e          	mov    %ax,0xe(%edx)
  800a24:	83 6d ec 01          	subl   $0x1,-0x14(%ebp)
  800a28:	83 7d ec 00          	cmpl   $0x0,-0x14(%ebp)
  800a2c:	79 b0                	jns    8009de <PAL_PartyWalkTo+0xcc>
  800a2e:	c7 c0 c8 bf 85 00    	mov    $0x85bfc8,%eax
  800a34:	8b 00                	mov    (%eax),%eax
  800a36:	c7 c2 c8 bf 85 00    	mov    $0x85bfc8,%edx
  800a3c:	8b 12                	mov    (%edx),%edx
  800a3e:	0f b7 92 48 44 00 00 	movzwl 0x4448(%edx),%edx
  800a45:	66 89 90 2e 44 00 00 	mov    %dx,0x442e(%eax)
  800a4c:	c7 c0 c8 bf 85 00    	mov    $0x85bfc8,%eax
  800a52:	8b 00                	mov    (%eax),%eax
  800a54:	c7 c2 c8 bf 85 00    	mov    $0x85bfc8,%edx
  800a5a:	8b 12                	mov    (%edx),%edx
  800a5c:	8b 92 ec 43 00 00    	mov    0x43ec(%edx),%edx
  800a62:	89 d1                	mov    %edx,%ecx
  800a64:	c7 c2 c8 bf 85 00    	mov    $0x85bfc8,%edx
  800a6a:	8b 12                	mov    (%edx),%edx
  800a6c:	8b 92 f0 43 00 00    	mov    0x43f0(%edx),%edx
  800a72:	01 ca                	add    %ecx,%edx
  800a74:	66 89 90 2a 44 00 00 	mov    %dx,0x442a(%eax)
  800a7b:	c7 c0 c8 bf 85 00    	mov    $0x85bfc8,%eax
  800a81:	8b 00                	mov    (%eax),%eax
  800a83:	c7 c2 c8 bf 85 00    	mov    $0x85bfc8,%edx
  800a89:	8b 12                	mov    (%edx),%edx
  800a8b:	8b 92 ec 43 00 00    	mov    0x43ec(%edx),%edx
  800a91:	c1 ea 10             	shr    $0x10,%edx
  800a94:	89 d1                	mov    %edx,%ecx
  800a96:	c7 c2 c8 bf 85 00    	mov    $0x85bfc8,%edx
  800a9c:	8b 12                	mov    (%edx),%edx
  800a9e:	8b 92 f0 43 00 00    	mov    0x43f0(%edx),%edx
  800aa4:	c1 ea 10             	shr    $0x10,%edx
  800aa7:	01 ca                	add    %ecx,%edx
  800aa9:	66 89 90 2c 44 00 00 	mov    %dx,0x442c(%eax)
  800ab0:	83 7d f0 00          	cmpl   $0x0,-0x10(%ebp)
  800ab4:	79 23                	jns    800ad9 <PAL_PartyWalkTo+0x1c7>
  800ab6:	c7 c0 c8 bf 85 00    	mov    $0x85bfc8,%eax
  800abc:	8b 00                	mov    (%eax),%eax
  800abe:	83 7d f4 00          	cmpl   $0x0,-0xc(%ebp)
  800ac2:	79 07                	jns    800acb <PAL_PartyWalkTo+0x1b9>
  800ac4:	ba 01 00 00 00       	mov    $0x1,%edx
  800ac9:	eb 05                	jmp    800ad0 <PAL_PartyWalkTo+0x1be>
  800acb:	ba 02 00 00 00       	mov    $0x2,%edx
  800ad0:	66 89 90 48 44 00 00 	mov    %dx,0x4448(%eax)
  800ad7:	eb 21                	jmp    800afa <PAL_PartyWalkTo+0x1e8>
  800ad9:	c7 c0 c8 bf 85 00    	mov    $0x85bfc8,%eax
  800adf:	8b 00                	mov    (%eax),%eax
  800ae1:	83 7d f4 00          	cmpl   $0x0,-0xc(%ebp)
  800ae5:	79 07                	jns    800aee <PAL_PartyWalkTo+0x1dc>
  800ae7:	ba 00 00 00 00       	mov    $0x0,%edx
  800aec:	eb 05                	jmp    800af3 <PAL_PartyWalkTo+0x1e1>
  800aee:	ba 03 00 00 00       	mov    $0x3,%edx
  800af3:	66 89 90 48 44 00 00 	mov    %dx,0x4448(%eax)
  800afa:	c7 c0 c8 bf 85 00    	mov    $0x85bfc8,%eax
  800b00:	8b 00                	mov    (%eax),%eax
  800b02:	8b 80 ec 43 00 00    	mov    0x43ec(%eax),%eax
  800b08:	98                   	cwtl   
  800b09:	89 45 e8             	mov    %eax,-0x18(%ebp)
  800b0c:	c7 c0 c8 bf 85 00    	mov    $0x85bfc8,%eax
  800b12:	8b 00                	mov    (%eax),%eax
  800b14:	8b 80 ec 43 00 00    	mov    0x43ec(%eax),%eax
  800b1a:	c1 e8 10             	shr    $0x10,%eax
  800b1d:	98                   	cwtl   
  800b1e:	89 45 e4             	mov    %eax,-0x1c(%ebp)
  800b21:	83 ec 0c             	sub    $0xc,%esp
  800b24:	ff 75 f4             	pushl  -0xc(%ebp)
  800b27:	e8 14 f4 02 00       	call   82ff40 <abs>
  800b2c:	83 c4 10             	add    $0x10,%esp
  800b2f:	89 c2                	mov    %eax,%edx
  800b31:	8b 45 14             	mov    0x14(%ebp),%eax
  800b34:	01 c0                	add    %eax,%eax
  800b36:	39 c2                	cmp    %eax,%edx
  800b38:	7f 08                	jg     800b42 <PAL_PartyWalkTo+0x230>
  800b3a:	8b 45 f4             	mov    -0xc(%ebp),%eax
  800b3d:	01 45 e8             	add    %eax,-0x18(%ebp)
  800b40:	eb 19                	jmp    800b5b <PAL_PartyWalkTo+0x249>
  800b42:	83 7d f4 00          	cmpl   $0x0,-0xc(%ebp)
  800b46:	79 07                	jns    800b4f <PAL_PartyWalkTo+0x23d>
  800b48:	b8 fe ff ff ff       	mov    $0xfffffffe,%eax
  800b4d:	eb 05                	jmp    800b54 <PAL_PartyWalkTo+0x242>
  800b4f:	b8 02 00 00 00       	mov    $0x2,%eax
  800b54:	0f af 45 14          	imul   0x14(%ebp),%eax
  800b58:	01 45 e8             	add    %eax,-0x18(%ebp)
  800b5b:	83 ec 0c             	sub    $0xc,%esp
  800b5e:	ff 75 f0             	pushl  -0x10(%ebp)
  800b61:	e8 da f3 02 00       	call   82ff40 <abs>
  800b66:	83 c4 10             	add    $0x10,%esp
  800b69:	3b 45 14             	cmp    0x14(%ebp),%eax
  800b6c:	7f 08                	jg     800b76 <PAL_PartyWalkTo+0x264>
  800b6e:	8b 45 f0             	mov    -0x10(%ebp),%eax
  800b71:	01 45 e4             	add    %eax,-0x1c(%ebp)
  800b74:	eb 19                	jmp    800b8f <PAL_PartyWalkTo+0x27d>
  800b76:	83 7d f0 00          	cmpl   $0x0,-0x10(%ebp)
  800b7a:	79 07                	jns    800b83 <PAL_PartyWalkTo+0x271>
  800b7c:	b8 ff ff ff ff       	mov    $0xffffffff,%eax
  800b81:	eb 05                	jmp    800b88 <PAL_PartyWalkTo+0x276>
  800b83:	b8 01 00 00 00       	mov    $0x1,%eax
  800b88:	0f af 45 14          	imul   0x14(%ebp),%eax
  800b8c:	01 45 e4             	add    %eax,-0x1c(%ebp)
  800b8f:	c7 c0 c8 bf 85 00    	mov    $0x85bfc8,%eax
  800b95:	8b 00                	mov    (%eax),%eax
  800b97:	8b 55 e4             	mov    -0x1c(%ebp),%edx
  800b9a:	0f b7 d2             	movzwl %dx,%edx
  800b9d:	c1 e2 10             	shl    $0x10,%edx
  800ba0:	89 d1                	mov    %edx,%ecx
  800ba2:	8b 55 e8             	mov    -0x18(%ebp),%edx
  800ba5:	0f b7 d2             	movzwl %dx,%edx
  800ba8:	09 ca                	or     %ecx,%edx
  800baa:	89 90 ec 43 00 00    	mov    %edx,0x43ec(%eax)
  800bb0:	83 ec 0c             	sub    $0xc,%esp
  800bb3:	6a 01                	push   $0x1
  800bb5:	e8 62 13 02 00       	call   821f1c <PAL_UpdatePartyGestures>
  800bba:	83 c4 10             	add    $0x10,%esp
  800bbd:	83 ec 0c             	sub    $0xc,%esp
  800bc0:	6a 00                	push   $0x0
  800bc2:	e8 19 63 00 00       	call   806ee0 <PAL_GameUpdate>
  800bc7:	83 c4 10             	add    $0x10,%esp
  800bca:	e8 01 10 02 00       	call   821bd0 <PAL_MakeScene>
  800bcf:	83 ec 0c             	sub    $0xc,%esp
  800bd2:	6a 00                	push   $0x0
  800bd4:	e8 a9 d5 02 00       	call   82e182 <VIDEO_UpdateScreen>
  800bd9:	83 c4 10             	add    $0x10,%esp
  800bdc:	8b 45 08             	mov    0x8(%ebp),%eax
  800bdf:	8d 14 00             	lea    (%eax,%eax,1),%edx
  800be2:	8b 45 10             	mov    0x10(%ebp),%eax
  800be5:	01 d0                	add    %edx,%eax
  800be7:	c1 e0 04             	shl    $0x4,%eax
  800bea:	89 c2                	mov    %eax,%edx
  800bec:	c7 c0 c8 bf 85 00    	mov    $0x85bfc8,%eax
  800bf2:	8b 00                	mov    (%eax),%eax
  800bf4:	8b 80 ec 43 00 00    	mov    0x43ec(%eax),%eax
  800bfa:	98                   	cwtl   
  800bfb:	29 c2                	sub    %eax,%edx
  800bfd:	c7 c0 c8 bf 85 00    	mov    $0x85bfc8,%eax
  800c03:	8b 00                	mov    (%eax),%eax
  800c05:	8b 80 f0 43 00 00    	mov    0x43f0(%eax),%eax
  800c0b:	98                   	cwtl   
  800c0c:	29 c2                	sub    %eax,%edx
  800c0e:	89 d0                	mov    %edx,%eax
  800c10:	89 45 f4             	mov    %eax,-0xc(%ebp)
  800c13:	8b 45 0c             	mov    0xc(%ebp),%eax
  800c16:	8d 14 00             	lea    (%eax,%eax,1),%edx
  800c19:	8b 45 10             	mov    0x10(%ebp),%eax
  800c1c:	01 d0                	add    %edx,%eax
  800c1e:	8d 14 c5 00 00 00 00 	lea    0x0(,%eax,8),%edx
  800c25:	c7 c0 c8 bf 85 00    	mov    $0x85bfc8,%eax
  800c2b:	8b 00                	mov    (%eax),%eax
  800c2d:	8b 80 ec 43 00 00    	mov    0x43ec(%eax),%eax
  800c33:	c1 e8 10             	shr    $0x10,%eax
  800c36:	98                   	cwtl   
  800c37:	29 c2                	sub    %eax,%edx
  800c39:	c7 c0 c8 bf 85 00    	mov    $0x85bfc8,%eax
  800c3f:	8b 00                	mov    (%eax),%eax
  800c41:	8b 80 f0 43 00 00    	mov    0x43f0(%eax),%eax
  800c47:	c1 e8 10             	shr    $0x10,%eax
  800c4a:	98                   	cwtl   
  800c4b:	29 c2                	sub    %eax,%edx
  800c4d:	89 d0                	mov    %edx,%eax
  800c4f:	89 45 f0             	mov    %eax,-0x10(%ebp)
  800c52:	83 7d f4 00          	cmpl   $0x0,-0xc(%ebp)
  800c56:	0f 85 4b fd ff ff    	jne    8009a7 <PAL_PartyWalkTo+0x95>
  800c5c:	83 7d f0 00          	cmpl   $0x0,-0x10(%ebp)
  800c60:	0f 85 41 fd ff ff    	jne    8009a7 <PAL_PartyWalkTo+0x95>
  800c66:	83 ec 0c             	sub    $0xc,%esp
  800c69:	6a 00                	push   $0x0
  800c6b:	e8 ac 12 02 00       	call   821f1c <PAL_UpdatePartyGestures>
  800c70:	83 c4 10             	add    $0x10,%esp
  800c73:	90                   	nop
  800c74:	8d 65 f8             	lea    -0x8(%ebp),%esp
  800c77:	5b                   	pop    %ebx
  800c78:	5e                   	pop    %esi
  800c79:	5d                   	pop    %ebp
  800c7a:	c3                   	ret    

00800c7b <PAL_PartyRideEventObject>:
  800c7b:	55                   	push   %ebp
  800c7c:	89 e5                	mov    %esp,%ebp
  800c7e:	56                   	push   %esi
  800c7f:	53                   	push   %ebx
  800c80:	83 ec 30             	sub    $0x30,%esp
  800c83:	e8 a6 f4 ff ff       	call   80012e <__x86.get_pc_thunk.bx>
  800c88:	81 c3 78 a3 04 00    	add    $0x4a378,%ebx
  800c8e:	8b 45 08             	mov    0x8(%ebp),%eax
  800c91:	66 89 45 d4          	mov    %ax,-0x2c(%ebp)
  800c95:	c7 c0 c8 bf 85 00    	mov    $0x85bfc8,%eax
  800c9b:	8b 00                	mov    (%eax),%eax
  800c9d:	8b 40 20             	mov    0x20(%eax),%eax
  800ca0:	0f b7 55 d4          	movzwl -0x2c(%ebp),%edx
  800ca4:	81 c2 ff ff ff 07    	add    $0x7ffffff,%edx
  800caa:	c1 e2 05             	shl    $0x5,%edx
  800cad:	01 d0                	add    %edx,%eax
  800caf:	89 45 dc             	mov    %eax,-0x24(%ebp)
  800cb2:	8b 45 0c             	mov    0xc(%ebp),%eax
  800cb5:	8d 14 00             	lea    (%eax,%eax,1),%edx
  800cb8:	8b 45 14             	mov    0x14(%ebp),%eax
  800cbb:	01 d0                	add    %edx,%eax
  800cbd:	c1 e0 04             	shl    $0x4,%eax
  800cc0:	89 c2                	mov    %eax,%edx
  800cc2:	c7 c0 c8 bf 85 00    	mov    $0x85bfc8,%eax
  800cc8:	8b 00                	mov    (%eax),%eax
  800cca:	8b 80 ec 43 00 00    	mov    0x43ec(%eax),%eax
  800cd0:	98                   	cwtl   
  800cd1:	29 c2                	sub    %eax,%edx
  800cd3:	c7 c0 c8 bf 85 00    	mov    $0x85bfc8,%eax
  800cd9:	8b 00                	mov    (%eax),%eax
  800cdb:	8b 80 f0 43 00 00    	mov    0x43f0(%eax),%eax
  800ce1:	98                   	cwtl   
  800ce2:	29 c2                	sub    %eax,%edx
  800ce4:	89 d0                	mov    %edx,%eax
  800ce6:	89 45 f4             	mov    %eax,-0xc(%ebp)
  800ce9:	8b 45 10             	mov    0x10(%ebp),%eax
  800cec:	8d 14 00             	lea    (%eax,%eax,1),%edx
  800cef:	8b 45 14             	mov    0x14(%ebp),%eax
  800cf2:	01 d0                	add    %edx,%eax
  800cf4:	8d 14 c5 00 00 00 00 	lea    0x0(,%eax,8),%edx
  800cfb:	c7 c0 c8 bf 85 00    	mov    $0x85bfc8,%eax
  800d01:	8b 00                	mov    (%eax),%eax
  800d03:	8b 80 ec 43 00 00    	mov    0x43ec(%eax),%eax
  800d09:	c1 e8 10             	shr    $0x10,%eax
  800d0c:	98                   	cwtl   
  800d0d:	29 c2                	sub    %eax,%edx
  800d0f:	c7 c0 c8 bf 85 00    	mov    $0x85bfc8,%eax
  800d15:	8b 00                	mov    (%eax),%eax
  800d17:	8b 80 f0 43 00 00    	mov    0x43f0(%eax),%eax
  800d1d:	c1 e8 10             	shr    $0x10,%eax
  800d20:	98                   	cwtl   
  800d21:	29 c2                	sub    %eax,%edx
  800d23:	89 d0                	mov    %edx,%eax
  800d25:	89 45 f0             	mov    %eax,-0x10(%ebp)
  800d28:	c7 45 e0 00 00 00 00 	movl   $0x0,-0x20(%ebp)
  800d2f:	e9 ce 02 00 00       	jmp    801002 <PAL_PartyRideEventObject+0x387>
  800d34:	e8 81 d1 02 00       	call   82deba <PAL_ProcessEvent>
  800d39:	eb 12                	jmp    800d4d <PAL_PartyRideEventObject+0xd2>
  800d3b:	e8 7a d1 02 00       	call   82deba <PAL_ProcessEvent>
  800d40:	83 ec 0c             	sub    $0xc,%esp
  800d43:	6a 01                	push   $0x1
  800d45:	e8 24 ff 00 00       	call   810c6e <SDL_Delay>
  800d4a:	83 c4 10             	add    $0x10,%esp
  800d4d:	e8 fe fe 00 00       	call   810c50 <SDL_GetTicks>
  800d52:	3b 45 e0             	cmp    -0x20(%ebp),%eax
  800d55:	76 e4                	jbe    800d3b <PAL_PartyRideEventObject+0xc0>
  800d57:	e8 f4 fe 00 00       	call   810c50 <SDL_GetTicks>
  800d5c:	83 c0 64             	add    $0x64,%eax
  800d5f:	89 45 e0             	mov    %eax,-0x20(%ebp)
  800d62:	83 7d f0 00          	cmpl   $0x0,-0x10(%ebp)
  800d66:	79 23                	jns    800d8b <PAL_PartyRideEventObject+0x110>
  800d68:	c7 c0 c8 bf 85 00    	mov    $0x85bfc8,%eax
  800d6e:	8b 00                	mov    (%eax),%eax
  800d70:	83 7d f4 00          	cmpl   $0x0,-0xc(%ebp)
  800d74:	79 07                	jns    800d7d <PAL_PartyRideEventObject+0x102>
  800d76:	ba 01 00 00 00       	mov    $0x1,%edx
  800d7b:	eb 05                	jmp    800d82 <PAL_PartyRideEventObject+0x107>
  800d7d:	ba 02 00 00 00       	mov    $0x2,%edx
  800d82:	66 89 90 48 44 00 00 	mov    %dx,0x4448(%eax)
  800d89:	eb 21                	jmp    800dac <PAL_PartyRideEventObject+0x131>
  800d8b:	c7 c0 c8 bf 85 00    	mov    $0x85bfc8,%eax
  800d91:	8b 00                	mov    (%eax),%eax
  800d93:	83 7d f4 00          	cmpl   $0x0,-0xc(%ebp)
  800d97:	79 07                	jns    800da0 <PAL_PartyRideEventObject+0x125>
  800d99:	ba 00 00 00 00       	mov    $0x0,%edx
  800d9e:	eb 05                	jmp    800da5 <PAL_PartyRideEventObject+0x12a>
  800da0:	ba 03 00 00 00       	mov    $0x3,%edx
  800da5:	66 89 90 48 44 00 00 	mov    %dx,0x4448(%eax)
  800dac:	83 ec 0c             	sub    $0xc,%esp
  800daf:	ff 75 f4             	pushl  -0xc(%ebp)
  800db2:	e8 89 f1 02 00       	call   82ff40 <abs>
  800db7:	83 c4 10             	add    $0x10,%esp
  800dba:	89 c2                	mov    %eax,%edx
  800dbc:	8b 45 18             	mov    0x18(%ebp),%eax
  800dbf:	01 c0                	add    %eax,%eax
  800dc1:	39 c2                	cmp    %eax,%edx
  800dc3:	7e 1b                	jle    800de0 <PAL_PartyRideEventObject+0x165>
  800dc5:	83 7d f4 00          	cmpl   $0x0,-0xc(%ebp)
  800dc9:	79 07                	jns    800dd2 <PAL_PartyRideEventObject+0x157>
  800dcb:	b8 fe ff ff ff       	mov    $0xfffffffe,%eax
  800dd0:	eb 05                	jmp    800dd7 <PAL_PartyRideEventObject+0x15c>
  800dd2:	b8 02 00 00 00       	mov    $0x2,%eax
  800dd7:	0f af 45 18          	imul   0x18(%ebp),%eax
  800ddb:	89 45 ec             	mov    %eax,-0x14(%ebp)
  800dde:	eb 06                	jmp    800de6 <PAL_PartyRideEventObject+0x16b>
  800de0:	8b 45 f4             	mov    -0xc(%ebp),%eax
  800de3:	89 45 ec             	mov    %eax,-0x14(%ebp)
  800de6:	83 ec 0c             	sub    $0xc,%esp
  800de9:	ff 75 f0             	pushl  -0x10(%ebp)
  800dec:	e8 4f f1 02 00       	call   82ff40 <abs>
  800df1:	83 c4 10             	add    $0x10,%esp
  800df4:	3b 45 18             	cmp    0x18(%ebp),%eax
  800df7:	7e 1b                	jle    800e14 <PAL_PartyRideEventObject+0x199>
  800df9:	83 7d f0 00          	cmpl   $0x0,-0x10(%ebp)
  800dfd:	79 07                	jns    800e06 <PAL_PartyRideEventObject+0x18b>
  800dff:	b8 ff ff ff ff       	mov    $0xffffffff,%eax
  800e04:	eb 05                	jmp    800e0b <PAL_PartyRideEventObject+0x190>
  800e06:	b8 01 00 00 00       	mov    $0x1,%eax
  800e0b:	0f af 45 18          	imul   0x18(%ebp),%eax
  800e0f:	89 45 e8             	mov    %eax,-0x18(%ebp)
  800e12:	eb 06                	jmp    800e1a <PAL_PartyRideEventObject+0x19f>
  800e14:	8b 45 f0             	mov    -0x10(%ebp),%eax
  800e17:	89 45 e8             	mov    %eax,-0x18(%ebp)
  800e1a:	c7 45 e4 03 00 00 00 	movl   $0x3,-0x1c(%ebp)
  800e21:	eb 4a                	jmp    800e6d <PAL_PartyRideEventObject+0x1f2>
  800e23:	c7 c0 c8 bf 85 00    	mov    $0x85bfc8,%eax
  800e29:	8b 08                	mov    (%eax),%ecx
  800e2b:	8b 45 e4             	mov    -0x1c(%ebp),%eax
  800e2e:	8d 50 01             	lea    0x1(%eax),%edx
  800e31:	c7 c0 c8 bf 85 00    	mov    $0x85bfc8,%eax
  800e37:	8b 30                	mov    (%eax),%esi
  800e39:	89 d0                	mov    %edx,%eax
  800e3b:	01 c0                	add    %eax,%eax
  800e3d:	01 d0                	add    %edx,%eax
  800e3f:	01 c0                	add    %eax,%eax
  800e41:	01 c8                	add    %ecx,%eax
  800e43:	8d 90 20 44 00 00    	lea    0x4420(%eax),%edx
  800e49:	8b 4d e4             	mov    -0x1c(%ebp),%ecx
  800e4c:	89 c8                	mov    %ecx,%eax
  800e4e:	01 c0                	add    %eax,%eax
  800e50:	01 c8                	add    %ecx,%eax
  800e52:	01 c0                	add    %eax,%eax
  800e54:	01 f0                	add    %esi,%eax
  800e56:	05 20 44 00 00       	add    $0x4420,%eax
  800e5b:	8b 48 0a             	mov    0xa(%eax),%ecx
  800e5e:	89 4a 0a             	mov    %ecx,0xa(%edx)
  800e61:	0f b7 40 0e          	movzwl 0xe(%eax),%eax
  800e65:	66 89 42 0e          	mov    %ax,0xe(%edx)
  800e69:	83 6d e4 01          	subl   $0x1,-0x1c(%ebp)
  800e6d:	83 7d e4 00          	cmpl   $0x0,-0x1c(%ebp)
  800e71:	79 b0                	jns    800e23 <PAL_PartyRideEventObject+0x1a8>
  800e73:	c7 c0 c8 bf 85 00    	mov    $0x85bfc8,%eax
  800e79:	8b 00                	mov    (%eax),%eax
  800e7b:	c7 c2 c8 bf 85 00    	mov    $0x85bfc8,%edx
  800e81:	8b 12                	mov    (%edx),%edx
  800e83:	0f b7 92 48 44 00 00 	movzwl 0x4448(%edx),%edx
  800e8a:	66 89 90 2e 44 00 00 	mov    %dx,0x442e(%eax)
  800e91:	c7 c0 c8 bf 85 00    	mov    $0x85bfc8,%eax
  800e97:	8b 00                	mov    (%eax),%eax
  800e99:	c7 c2 c8 bf 85 00    	mov    $0x85bfc8,%edx
  800e9f:	8b 12                	mov    (%edx),%edx
  800ea1:	8b 92 ec 43 00 00    	mov    0x43ec(%edx),%edx
  800ea7:	89 d1                	mov    %edx,%ecx
  800ea9:	8b 55 ec             	mov    -0x14(%ebp),%edx
  800eac:	01 d1                	add    %edx,%ecx
  800eae:	c7 c2 c8 bf 85 00    	mov    $0x85bfc8,%edx
  800eb4:	8b 12                	mov    (%edx),%edx
  800eb6:	8b 92 f0 43 00 00    	mov    0x43f0(%edx),%edx
  800ebc:	01 ca                	add    %ecx,%edx
  800ebe:	66 89 90 2a 44 00 00 	mov    %dx,0x442a(%eax)
  800ec5:	c7 c0 c8 bf 85 00    	mov    $0x85bfc8,%eax
  800ecb:	8b 00                	mov    (%eax),%eax
  800ecd:	c7 c2 c8 bf 85 00    	mov    $0x85bfc8,%edx
  800ed3:	8b 12                	mov    (%edx),%edx
  800ed5:	8b 92 ec 43 00 00    	mov    0x43ec(%edx),%edx
  800edb:	c1 ea 10             	shr    $0x10,%edx
  800ede:	89 d1                	mov    %edx,%ecx
  800ee0:	8b 55 e8             	mov    -0x18(%ebp),%edx
  800ee3:	01 d1                	add    %edx,%ecx
  800ee5:	c7 c2 c8 bf 85 00    	mov    $0x85bfc8,%edx
  800eeb:	8b 12                	mov    (%edx),%edx
  800eed:	8b 92 f0 43 00 00    	mov    0x43f0(%edx),%edx
  800ef3:	c1 ea 10             	shr    $0x10,%edx
  800ef6:	01 ca                	add    %ecx,%edx
  800ef8:	66 89 90 2c 44 00 00 	mov    %dx,0x442c(%eax)
  800eff:	c7 c0 c8 bf 85 00    	mov    $0x85bfc8,%eax
  800f05:	8b 00                	mov    (%eax),%eax
  800f07:	c7 c2 c8 bf 85 00    	mov    $0x85bfc8,%edx
  800f0d:	8b 12                	mov    (%edx),%edx
  800f0f:	8b 92 ec 43 00 00    	mov    0x43ec(%edx),%edx
  800f15:	c1 ea 10             	shr    $0x10,%edx
  800f18:	89 d1                	mov    %edx,%ecx
  800f1a:	8b 55 e8             	mov    -0x18(%ebp),%edx
  800f1d:	01 ca                	add    %ecx,%edx
  800f1f:	0f b7 d2             	movzwl %dx,%edx
  800f22:	c1 e2 10             	shl    $0x10,%edx
  800f25:	89 d1                	mov    %edx,%ecx
  800f27:	c7 c2 c8 bf 85 00    	mov    $0x85bfc8,%edx
  800f2d:	8b 12                	mov    (%edx),%edx
  800f2f:	8b 92 ec 43 00 00    	mov    0x43ec(%edx),%edx
  800f35:	89 d6                	mov    %edx,%esi
  800f37:	8b 55 ec             	mov    -0x14(%ebp),%edx
  800f3a:	01 f2                	add    %esi,%edx
  800f3c:	0f b7 d2             	movzwl %dx,%edx
  800f3f:	09 ca                	or     %ecx,%edx
  800f41:	89 90 ec 43 00 00    	mov    %edx,0x43ec(%eax)
  800f47:	8b 45 dc             	mov    -0x24(%ebp),%eax
  800f4a:	0f b7 40 02          	movzwl 0x2(%eax),%eax
  800f4e:	8b 55 ec             	mov    -0x14(%ebp),%edx
  800f51:	01 c2                	add    %eax,%edx
  800f53:	8b 45 dc             	mov    -0x24(%ebp),%eax
  800f56:	66 89 50 02          	mov    %dx,0x2(%eax)
  800f5a:	8b 45 dc             	mov    -0x24(%ebp),%eax
  800f5d:	0f b7 40 04          	movzwl 0x4(%eax),%eax
  800f61:	8b 55 e8             	mov    -0x18(%ebp),%edx
  800f64:	01 c2                	add    %eax,%edx
  800f66:	8b 45 dc             	mov    -0x24(%ebp),%eax
  800f69:	66 89 50 04          	mov    %dx,0x4(%eax)
  800f6d:	83 ec 0c             	sub    $0xc,%esp
  800f70:	6a 00                	push   $0x0
  800f72:	e8 69 5f 00 00       	call   806ee0 <PAL_GameUpdate>
  800f77:	83 c4 10             	add    $0x10,%esp
  800f7a:	e8 51 0c 02 00       	call   821bd0 <PAL_MakeScene>
  800f7f:	83 ec 0c             	sub    $0xc,%esp
  800f82:	6a 00                	push   $0x0
  800f84:	e8 f9 d1 02 00       	call   82e182 <VIDEO_UpdateScreen>
  800f89:	83 c4 10             	add    $0x10,%esp
  800f8c:	8b 45 0c             	mov    0xc(%ebp),%eax
  800f8f:	8d 14 00             	lea    (%eax,%eax,1),%edx
  800f92:	8b 45 14             	mov    0x14(%ebp),%eax
  800f95:	01 d0                	add    %edx,%eax
  800f97:	c1 e0 04             	shl    $0x4,%eax
  800f9a:	89 c2                	mov    %eax,%edx
  800f9c:	c7 c0 c8 bf 85 00    	mov    $0x85bfc8,%eax
  800fa2:	8b 00                	mov    (%eax),%eax
  800fa4:	8b 80 ec 43 00 00    	mov    0x43ec(%eax),%eax
  800faa:	98                   	cwtl   
  800fab:	29 c2                	sub    %eax,%edx
  800fad:	c7 c0 c8 bf 85 00    	mov    $0x85bfc8,%eax
  800fb3:	8b 00                	mov    (%eax),%eax
  800fb5:	8b 80 f0 43 00 00    	mov    0x43f0(%eax),%eax
  800fbb:	98                   	cwtl   
  800fbc:	29 c2                	sub    %eax,%edx
  800fbe:	89 d0                	mov    %edx,%eax
  800fc0:	89 45 f4             	mov    %eax,-0xc(%ebp)
  800fc3:	8b 45 10             	mov    0x10(%ebp),%eax
  800fc6:	8d 14 00             	lea    (%eax,%eax,1),%edx
  800fc9:	8b 45 14             	mov    0x14(%ebp),%eax
  800fcc:	01 d0                	add    %edx,%eax
  800fce:	8d 14 c5 00 00 00 00 	lea    0x0(,%eax,8),%edx
  800fd5:	c7 c0 c8 bf 85 00    	mov    $0x85bfc8,%eax
  800fdb:	8b 00                	mov    (%eax),%eax
  800fdd:	8b 80 ec 43 00 00    	mov    0x43ec(%eax),%eax
  800fe3:	c1 e8 10             	shr    $0x10,%eax
  800fe6:	98                   	cwtl   
  800fe7:	29 c2                	sub    %eax,%edx
  800fe9:	c7 c0 c8 bf 85 00    	mov    $0x85bfc8,%eax
  800fef:	8b 00                	mov    (%eax),%eax
  800ff1:	8b 80 f0 43 00 00    	mov    0x43f0(%eax),%eax
  800ff7:	c1 e8 10             	shr    $0x10,%eax
  800ffa:	98                   	cwtl   
  800ffb:	29 c2                	sub    %eax,%edx
  800ffd:	89 d0                	mov    %edx,%eax
  800fff:	89 45 f0             	mov    %eax,-0x10(%ebp)
  801002:	83 7d f4 00          	cmpl   $0x0,-0xc(%ebp)
  801006:	0f 85 28 fd ff ff    	jne    800d34 <PAL_PartyRideEventObject+0xb9>
  80100c:	83 7d f0 00          	cmpl   $0x0,-0x10(%ebp)
  801010:	0f 85 1e fd ff ff    	jne    800d34 <PAL_PartyRideEventObject+0xb9>
  801016:	90                   	nop
  801017:	8d 65 f8             	lea    -0x8(%ebp),%esp
  80101a:	5b                   	pop    %ebx
  80101b:	5e                   	pop    %esi
  80101c:	5d                   	pop    %ebp
  80101d:	c3                   	ret    

0080101e <PAL_MonsterChasePlayer>:
  80101e:	55                   	push   %ebp
  80101f:	89 e5                	mov    %esp,%ebp
  801021:	56                   	push   %esi
  801022:	53                   	push   %ebx
  801023:	83 ec 30             	sub    $0x30,%esp
  801026:	e8 03 f1 ff ff       	call   80012e <__x86.get_pc_thunk.bx>
  80102b:	81 c3 d5 9f 04 00    	add    $0x49fd5,%ebx
  801031:	8b 4d 08             	mov    0x8(%ebp),%ecx
  801034:	8b 55 0c             	mov    0xc(%ebp),%edx
  801037:	8b 45 10             	mov    0x10(%ebp),%eax
  80103a:	66 89 4d d4          	mov    %cx,-0x2c(%ebp)
  80103e:	66 89 55 d0          	mov    %dx,-0x30(%ebp)
  801042:	66 89 45 cc          	mov    %ax,-0x34(%ebp)
  801046:	c7 c0 c8 bf 85 00    	mov    $0x85bfc8,%eax
  80104c:	8b 00                	mov    (%eax),%eax
  80104e:	8b 40 20             	mov    0x20(%eax),%eax
  801051:	0f b7 55 d4          	movzwl -0x2c(%ebp),%edx
  801055:	81 c2 ff ff ff 07    	add    $0x7ffffff,%edx
  80105b:	c1 e2 05             	shl    $0x5,%edx
  80105e:	01 d0                	add    %edx,%eax
  801060:	89 45 e0             	mov    %eax,-0x20(%ebp)
  801063:	66 c7 45 f6 00 00    	movw   $0x0,-0xa(%ebp)
  801069:	c7 c0 c8 bf 85 00    	mov    $0x85bfc8,%eax
  80106f:	8b 00                	mov    (%eax),%eax
  801071:	0f b7 80 60 44 00 00 	movzwl 0x4460(%eax),%eax
  801078:	66 85 c0             	test   %ax,%ax
  80107b:	0f 84 1b 04 00 00    	je     80149c <PAL_MonsterChasePlayer+0x47e>
  801081:	c7 c0 c8 bf 85 00    	mov    $0x85bfc8,%eax
  801087:	8b 00                	mov    (%eax),%eax
  801089:	8b 80 ec 43 00 00    	mov    0x43ec(%eax),%eax
  80108f:	0f bf d0             	movswl %ax,%edx
  801092:	c7 c0 c8 bf 85 00    	mov    $0x85bfc8,%eax
  801098:	8b 00                	mov    (%eax),%eax
  80109a:	8b 80 f0 43 00 00    	mov    0x43f0(%eax),%eax
  8010a0:	98                   	cwtl   
  8010a1:	01 c2                	add    %eax,%edx
  8010a3:	8b 45 e0             	mov    -0x20(%ebp),%eax
  8010a6:	0f b7 40 02          	movzwl 0x2(%eax),%eax
  8010aa:	0f b7 c0             	movzwl %ax,%eax
  8010ad:	29 c2                	sub    %eax,%edx
  8010af:	89 d0                	mov    %edx,%eax
  8010b1:	89 45 ec             	mov    %eax,-0x14(%ebp)
  8010b4:	c7 c0 c8 bf 85 00    	mov    $0x85bfc8,%eax
  8010ba:	8b 00                	mov    (%eax),%eax
  8010bc:	8b 80 ec 43 00 00    	mov    0x43ec(%eax),%eax
  8010c2:	c1 e8 10             	shr    $0x10,%eax
  8010c5:	0f bf d0             	movswl %ax,%edx
  8010c8:	c7 c0 c8 bf 85 00    	mov    $0x85bfc8,%eax
  8010ce:	8b 00                	mov    (%eax),%eax
  8010d0:	8b 80 f0 43 00 00    	mov    0x43f0(%eax),%eax
  8010d6:	c1 e8 10             	shr    $0x10,%eax
  8010d9:	98                   	cwtl   
  8010da:	01 c2                	add    %eax,%edx
  8010dc:	8b 45 e0             	mov    -0x20(%ebp),%eax
  8010df:	0f b7 40 04          	movzwl 0x4(%eax),%eax
  8010e3:	0f b7 c0             	movzwl %ax,%eax
  8010e6:	29 c2                	sub    %eax,%edx
  8010e8:	89 d0                	mov    %edx,%eax
  8010ea:	89 45 e8             	mov    %eax,-0x18(%ebp)
  8010ed:	83 7d ec 00          	cmpl   $0x0,-0x14(%ebp)
  8010f1:	75 22                	jne    801115 <PAL_MonsterChasePlayer+0xf7>
  8010f3:	83 ec 08             	sub    $0x8,%esp
  8010f6:	6a 01                	push   $0x1
  8010f8:	6a 00                	push   $0x0
  8010fa:	e8 90 e7 00 00       	call   80f88f <RandomLong>
  8010ff:	83 c4 10             	add    $0x10,%esp
  801102:	85 c0                	test   %eax,%eax
  801104:	74 07                	je     80110d <PAL_MonsterChasePlayer+0xef>
  801106:	b8 ff ff ff ff       	mov    $0xffffffff,%eax
  80110b:	eb 05                	jmp    801112 <PAL_MonsterChasePlayer+0xf4>
  80110d:	b8 01 00 00 00       	mov    $0x1,%eax
  801112:	89 45 ec             	mov    %eax,-0x14(%ebp)
  801115:	83 7d e8 00          	cmpl   $0x0,-0x18(%ebp)
  801119:	75 22                	jne    80113d <PAL_MonsterChasePlayer+0x11f>
  80111b:	83 ec 08             	sub    $0x8,%esp
  80111e:	6a 01                	push   $0x1
  801120:	6a 00                	push   $0x0
  801122:	e8 68 e7 00 00       	call   80f88f <RandomLong>
  801127:	83 c4 10             	add    $0x10,%esp
  80112a:	85 c0                	test   %eax,%eax
  80112c:	74 07                	je     801135 <PAL_MonsterChasePlayer+0x117>
  80112e:	b8 ff ff ff ff       	mov    $0xffffffff,%eax
  801133:	eb 05                	jmp    80113a <PAL_MonsterChasePlayer+0x11c>
  801135:	b8 01 00 00 00       	mov    $0x1,%eax
  80113a:	89 45 e8             	mov    %eax,-0x18(%ebp)
  80113d:	8b 45 e0             	mov    -0x20(%ebp),%eax
  801140:	0f b7 40 02          	movzwl 0x2(%eax),%eax
  801144:	66 89 45 f4          	mov    %ax,-0xc(%ebp)
  801148:	8b 45 e0             	mov    -0x20(%ebp),%eax
  80114b:	0f b7 40 04          	movzwl 0x4(%eax),%eax
  80114f:	66 89 45 f2          	mov    %ax,-0xe(%ebp)
  801153:	0f b7 45 f4          	movzwl -0xc(%ebp),%eax
  801157:	83 e0 1f             	and    $0x1f,%eax
  80115a:	89 45 dc             	mov    %eax,-0x24(%ebp)
  80115d:	0f b7 45 f2          	movzwl -0xe(%ebp),%eax
  801161:	83 e0 0f             	and    $0xf,%eax
  801164:	89 45 d8             	mov    %eax,-0x28(%ebp)
  801167:	0f b7 45 f4          	movzwl -0xc(%ebp),%eax
  80116b:	66 c1 e8 05          	shr    $0x5,%ax
  80116f:	66 89 45 f4          	mov    %ax,-0xc(%ebp)
  801173:	0f b7 45 f2          	movzwl -0xe(%ebp),%eax
  801177:	66 c1 e8 04          	shr    $0x4,%ax
  80117b:	66 89 45 f2          	mov    %ax,-0xe(%ebp)
  80117f:	c7 45 e4 00 00 00 00 	movl   $0x0,-0x1c(%ebp)
  801186:	8b 45 d8             	mov    -0x28(%ebp),%eax
  801189:	8d 14 00             	lea    (%eax,%eax,1),%edx
  80118c:	8b 45 dc             	mov    -0x24(%ebp),%eax
  80118f:	01 d0                	add    %edx,%eax
  801191:	83 f8 0f             	cmp    $0xf,%eax
  801194:	7e 71                	jle    801207 <PAL_MonsterChasePlayer+0x1e9>
  801196:	8b 45 d8             	mov    -0x28(%ebp),%eax
  801199:	8d 14 00             	lea    (%eax,%eax,1),%edx
  80119c:	8b 45 dc             	mov    -0x24(%ebp),%eax
  80119f:	01 d0                	add    %edx,%eax
  8011a1:	83 f8 2f             	cmp    $0x2f,%eax
  8011a4:	7e 18                	jle    8011be <PAL_MonsterChasePlayer+0x1a0>
  8011a6:	0f b7 45 f4          	movzwl -0xc(%ebp),%eax
  8011aa:	83 c0 01             	add    $0x1,%eax
  8011ad:	66 89 45 f4          	mov    %ax,-0xc(%ebp)
  8011b1:	0f b7 45 f2          	movzwl -0xe(%ebp),%eax
  8011b5:	83 c0 01             	add    $0x1,%eax
  8011b8:	66 89 45 f2          	mov    %ax,-0xe(%ebp)
  8011bc:	eb 49                	jmp    801207 <PAL_MonsterChasePlayer+0x1e9>
  8011be:	b8 20 00 00 00       	mov    $0x20,%eax
  8011c3:	2b 45 dc             	sub    -0x24(%ebp),%eax
  8011c6:	8b 55 d8             	mov    -0x28(%ebp),%edx
  8011c9:	01 d2                	add    %edx,%edx
  8011cb:	01 d0                	add    %edx,%eax
  8011cd:	83 f8 0f             	cmp    $0xf,%eax
  8011d0:	7f 0d                	jg     8011df <PAL_MonsterChasePlayer+0x1c1>
  8011d2:	0f b7 45 f4          	movzwl -0xc(%ebp),%eax
  8011d6:	83 c0 01             	add    $0x1,%eax
  8011d9:	66 89 45 f4          	mov    %ax,-0xc(%ebp)
  8011dd:	eb 28                	jmp    801207 <PAL_MonsterChasePlayer+0x1e9>
  8011df:	b8 20 00 00 00       	mov    $0x20,%eax
  8011e4:	2b 45 dc             	sub    -0x24(%ebp),%eax
  8011e7:	8b 55 d8             	mov    -0x28(%ebp),%edx
  8011ea:	01 d2                	add    %edx,%edx
  8011ec:	01 d0                	add    %edx,%eax
  8011ee:	83 f8 2f             	cmp    $0x2f,%eax
  8011f1:	7f 09                	jg     8011fc <PAL_MonsterChasePlayer+0x1de>
  8011f3:	c7 45 e4 01 00 00 00 	movl   $0x1,-0x1c(%ebp)
  8011fa:	eb 0b                	jmp    801207 <PAL_MonsterChasePlayer+0x1e9>
  8011fc:	0f b7 45 f2          	movzwl -0xe(%ebp),%eax
  801200:	83 c0 01             	add    $0x1,%eax
  801203:	66 89 45 f2          	mov    %ax,-0xe(%ebp)
  801207:	0f b7 45 f4          	movzwl -0xc(%ebp),%eax
  80120b:	8d 14 00             	lea    (%eax,%eax,1),%edx
  80120e:	8b 45 e4             	mov    -0x1c(%ebp),%eax
  801211:	01 d0                	add    %edx,%eax
  801213:	c1 e0 04             	shl    $0x4,%eax
  801216:	66 89 45 f4          	mov    %ax,-0xc(%ebp)
  80121a:	0f b7 45 f2          	movzwl -0xe(%ebp),%eax
  80121e:	8d 14 00             	lea    (%eax,%eax,1),%edx
  801221:	8b 45 e4             	mov    -0x1c(%ebp),%eax
  801224:	01 d0                	add    %edx,%eax
  801226:	c1 e0 03             	shl    $0x3,%eax
  801229:	66 89 45 f2          	mov    %ax,-0xe(%ebp)
  80122d:	83 ec 0c             	sub    $0xc,%esp
  801230:	ff 75 ec             	pushl  -0x14(%ebp)
  801233:	e8 08 ed 02 00       	call   82ff40 <abs>
  801238:	83 c4 10             	add    $0x10,%esp
  80123b:	89 c6                	mov    %eax,%esi
  80123d:	83 ec 0c             	sub    $0xc,%esp
  801240:	ff 75 e8             	pushl  -0x18(%ebp)
  801243:	e8 f8 ec 02 00       	call   82ff40 <abs>
  801248:	83 c4 10             	add    $0x10,%esp
  80124b:	01 c0                	add    %eax,%eax
  80124d:	8d 14 06             	lea    (%esi,%eax,1),%edx
  801250:	0f b7 45 cc          	movzwl -0x34(%ebp),%eax
  801254:	c1 e0 05             	shl    $0x5,%eax
  801257:	89 c1                	mov    %eax,%ecx
  801259:	c7 c0 c8 bf 85 00    	mov    $0x85bfc8,%eax
  80125f:	8b 00                	mov    (%eax),%eax
  801261:	0f b7 80 60 44 00 00 	movzwl 0x4460(%eax),%eax
  801268:	0f b7 c0             	movzwl %ax,%eax
  80126b:	0f af c1             	imul   %ecx,%eax
  80126e:	39 c2                	cmp    %eax,%edx
  801270:	0f 8d 26 02 00 00    	jge    80149c <PAL_MonsterChasePlayer+0x47e>
  801276:	83 7d ec 00          	cmpl   $0x0,-0x14(%ebp)
  80127a:	79 1c                	jns    801298 <PAL_MonsterChasePlayer+0x27a>
  80127c:	83 7d e8 00          	cmpl   $0x0,-0x18(%ebp)
  801280:	79 0b                	jns    80128d <PAL_MonsterChasePlayer+0x26f>
  801282:	8b 45 e0             	mov    -0x20(%ebp),%eax
  801285:	66 c7 40 14 01 00    	movw   $0x1,0x14(%eax)
  80128b:	eb 25                	jmp    8012b2 <PAL_MonsterChasePlayer+0x294>
  80128d:	8b 45 e0             	mov    -0x20(%ebp),%eax
  801290:	66 c7 40 14 00 00    	movw   $0x0,0x14(%eax)
  801296:	eb 1a                	jmp    8012b2 <PAL_MonsterChasePlayer+0x294>
  801298:	83 7d e8 00          	cmpl   $0x0,-0x18(%ebp)
  80129c:	79 0b                	jns    8012a9 <PAL_MonsterChasePlayer+0x28b>
  80129e:	8b 45 e0             	mov    -0x20(%ebp),%eax
  8012a1:	66 c7 40 14 02 00    	movw   $0x2,0x14(%eax)
  8012a7:	eb 09                	jmp    8012b2 <PAL_MonsterChasePlayer+0x294>
  8012a9:	8b 45 e0             	mov    -0x20(%ebp),%eax
  8012ac:	66 c7 40 14 03 00    	movw   $0x3,0x14(%eax)
  8012b2:	83 7d ec 00          	cmpl   $0x0,-0x14(%ebp)
  8012b6:	74 2a                	je     8012e2 <PAL_MonsterChasePlayer+0x2c4>
  8012b8:	8b 45 e0             	mov    -0x20(%ebp),%eax
  8012bb:	0f b7 40 02          	movzwl 0x2(%eax),%eax
  8012bf:	0f b7 f0             	movzwl %ax,%esi
  8012c2:	83 ec 0c             	sub    $0xc,%esp
  8012c5:	ff 75 ec             	pushl  -0x14(%ebp)
  8012c8:	e8 73 ec 02 00       	call   82ff40 <abs>
  8012cd:	83 c4 10             	add    $0x10,%esp
  8012d0:	89 c1                	mov    %eax,%ecx
  8012d2:	8b 45 ec             	mov    -0x14(%ebp),%eax
  8012d5:	99                   	cltd   
  8012d6:	f7 f9                	idiv   %ecx
  8012d8:	c1 e0 04             	shl    $0x4,%eax
  8012db:	01 f0                	add    %esi,%eax
  8012dd:	89 45 ec             	mov    %eax,-0x14(%ebp)
  8012e0:	eb 0d                	jmp    8012ef <PAL_MonsterChasePlayer+0x2d1>
  8012e2:	8b 45 e0             	mov    -0x20(%ebp),%eax
  8012e5:	0f b7 40 02          	movzwl 0x2(%eax),%eax
  8012e9:	0f b7 c0             	movzwl %ax,%eax
  8012ec:	89 45 ec             	mov    %eax,-0x14(%ebp)
  8012ef:	83 7d e8 00          	cmpl   $0x0,-0x18(%ebp)
  8012f3:	74 2a                	je     80131f <PAL_MonsterChasePlayer+0x301>
  8012f5:	8b 45 e0             	mov    -0x20(%ebp),%eax
  8012f8:	0f b7 40 04          	movzwl 0x4(%eax),%eax
  8012fc:	0f b7 f0             	movzwl %ax,%esi
  8012ff:	83 ec 0c             	sub    $0xc,%esp
  801302:	ff 75 e8             	pushl  -0x18(%ebp)
  801305:	e8 36 ec 02 00       	call   82ff40 <abs>
  80130a:	83 c4 10             	add    $0x10,%esp
  80130d:	89 c1                	mov    %eax,%ecx
  80130f:	8b 45 e8             	mov    -0x18(%ebp),%eax
  801312:	99                   	cltd   
  801313:	f7 f9                	idiv   %ecx
  801315:	c1 e0 03             	shl    $0x3,%eax
  801318:	01 f0                	add    %esi,%eax
  80131a:	89 45 e8             	mov    %eax,-0x18(%ebp)
  80131d:	eb 0d                	jmp    80132c <PAL_MonsterChasePlayer+0x30e>
  80131f:	8b 45 e0             	mov    -0x20(%ebp),%eax
  801322:	0f b7 40 04          	movzwl 0x4(%eax),%eax
  801326:	0f b7 c0             	movzwl %ax,%eax
  801329:	89 45 e8             	mov    %eax,-0x18(%ebp)
  80132c:	83 7d 14 00          	cmpl   $0x0,0x14(%ebp)
  801330:	74 0d                	je     80133f <PAL_MonsterChasePlayer+0x321>
  801332:	0f b7 45 d0          	movzwl -0x30(%ebp),%eax
  801336:	66 89 45 f6          	mov    %ax,-0xa(%ebp)
  80133a:	e9 5d 01 00 00       	jmp    80149c <PAL_MonsterChasePlayer+0x47e>
  80133f:	0f b7 45 d4          	movzwl -0x2c(%ebp),%eax
  801343:	8b 55 e8             	mov    -0x18(%ebp),%edx
  801346:	0f b7 d2             	movzwl %dx,%edx
  801349:	c1 e2 10             	shl    $0x10,%edx
  80134c:	89 d1                	mov    %edx,%ecx
  80134e:	8b 55 ec             	mov    -0x14(%ebp),%edx
  801351:	0f b7 d2             	movzwl %dx,%edx
  801354:	09 ca                	or     %ecx,%edx
  801356:	83 ec 04             	sub    $0x4,%esp
  801359:	50                   	push   %eax
  80135a:	6a 01                	push   $0x1
  80135c:	52                   	push   %edx
  80135d:	e8 70 09 02 00       	call   821cd2 <PAL_CheckObstacle>
  801362:	83 c4 10             	add    $0x10,%esp
  801365:	85 c0                	test   %eax,%eax
  801367:	75 0a                	jne    801373 <PAL_MonsterChasePlayer+0x355>
  801369:	0f b7 45 d0          	movzwl -0x30(%ebp),%eax
  80136d:	66 89 45 f6          	mov    %ax,-0xa(%ebp)
  801371:	eb 16                	jmp    801389 <PAL_MonsterChasePlayer+0x36b>
  801373:	8b 45 e0             	mov    -0x20(%ebp),%eax
  801376:	0f b7 55 f4          	movzwl -0xc(%ebp),%edx
  80137a:	66 89 50 02          	mov    %dx,0x2(%eax)
  80137e:	8b 45 e0             	mov    -0x20(%ebp),%eax
  801381:	0f b7 55 f2          	movzwl -0xe(%ebp),%edx
  801385:	66 89 50 04          	mov    %dx,0x4(%eax)
  801389:	c7 45 e4 00 00 00 00 	movl   $0x0,-0x1c(%ebp)
  801390:	e9 fd 00 00 00       	jmp    801492 <PAL_MonsterChasePlayer+0x474>
  801395:	8b 45 e4             	mov    -0x1c(%ebp),%eax
  801398:	83 f8 01             	cmp    $0x1,%eax
  80139b:	74 41                	je     8013de <PAL_MonsterChasePlayer+0x3c0>
  80139d:	83 f8 01             	cmp    $0x1,%eax
  8013a0:	7f 09                	jg     8013ab <PAL_MonsterChasePlayer+0x38d>
  8013a2:	85 c0                	test   %eax,%eax
  8013a4:	74 14                	je     8013ba <PAL_MonsterChasePlayer+0x39c>
  8013a6:	e9 9e 00 00 00       	jmp    801449 <PAL_MonsterChasePlayer+0x42b>
  8013ab:	83 f8 02             	cmp    $0x2,%eax
  8013ae:	74 52                	je     801402 <PAL_MonsterChasePlayer+0x3e4>
  8013b0:	83 f8 03             	cmp    $0x3,%eax
  8013b3:	74 71                	je     801426 <PAL_MonsterChasePlayer+0x408>
  8013b5:	e9 8f 00 00 00       	jmp    801449 <PAL_MonsterChasePlayer+0x42b>
  8013ba:	8b 45 e0             	mov    -0x20(%ebp),%eax
  8013bd:	0f b7 40 02          	movzwl 0x2(%eax),%eax
  8013c1:	8d 50 fc             	lea    -0x4(%eax),%edx
  8013c4:	8b 45 e0             	mov    -0x20(%ebp),%eax
  8013c7:	66 89 50 02          	mov    %dx,0x2(%eax)
  8013cb:	8b 45 e0             	mov    -0x20(%ebp),%eax
  8013ce:	0f b7 40 04          	movzwl 0x4(%eax),%eax
  8013d2:	8d 50 02             	lea    0x2(%eax),%edx
  8013d5:	8b 45 e0             	mov    -0x20(%ebp),%eax
  8013d8:	66 89 50 04          	mov    %dx,0x4(%eax)
  8013dc:	eb 6b                	jmp    801449 <PAL_MonsterChasePlayer+0x42b>
  8013de:	8b 45 e0             	mov    -0x20(%ebp),%eax
  8013e1:	0f b7 40 02          	movzwl 0x2(%eax),%eax
  8013e5:	8d 50 fc             	lea    -0x4(%eax),%edx
  8013e8:	8b 45 e0             	mov    -0x20(%ebp),%eax
  8013eb:	66 89 50 02          	mov    %dx,0x2(%eax)
  8013ef:	8b 45 e0             	mov    -0x20(%ebp),%eax
  8013f2:	0f b7 40 04          	movzwl 0x4(%eax),%eax
  8013f6:	8d 50 fe             	lea    -0x2(%eax),%edx
  8013f9:	8b 45 e0             	mov    -0x20(%ebp),%eax
  8013fc:	66 89 50 04          	mov    %dx,0x4(%eax)
  801400:	eb 47                	jmp    801449 <PAL_MonsterChasePlayer+0x42b>
  801402:	8b 45 e0             	mov    -0x20(%ebp),%eax
  801405:	0f b7 40 02          	movzwl 0x2(%eax),%eax
  801409:	8d 50 04             	lea    0x4(%eax),%edx
  80140c:	8b 45 e0             	mov    -0x20(%ebp),%eax
  80140f:	66 89 50 02          	mov    %dx,0x2(%eax)
  801413:	8b 45 e0             	mov    -0x20(%ebp),%eax
  801416:	0f b7 40 04          	movzwl 0x4(%eax),%eax
  80141a:	8d 50 fe             	lea    -0x2(%eax),%edx
  80141d:	8b 45 e0             	mov    -0x20(%ebp),%eax
  801420:	66 89 50 04          	mov    %dx,0x4(%eax)
  801424:	eb 23                	jmp    801449 <PAL_MonsterChasePlayer+0x42b>
  801426:	8b 45 e0             	mov    -0x20(%ebp),%eax
  801429:	0f b7 40 02          	movzwl 0x2(%eax),%eax
  80142d:	8d 50 04             	lea    0x4(%eax),%edx
  801430:	8b 45 e0             	mov    -0x20(%ebp),%eax
  801433:	66 89 50 02          	mov    %dx,0x2(%eax)
  801437:	8b 45 e0             	mov    -0x20(%ebp),%eax
  80143a:	0f b7 40 04          	movzwl 0x4(%eax),%eax
  80143e:	8d 50 02             	lea    0x2(%eax),%edx
  801441:	8b 45 e0             	mov    -0x20(%ebp),%eax
  801444:	66 89 50 04          	mov    %dx,0x4(%eax)
  801448:	90                   	nop
  801449:	8b 45 e0             	mov    -0x20(%ebp),%eax
  80144c:	0f b7 40 04          	movzwl 0x4(%eax),%eax
  801450:	0f b7 c0             	movzwl %ax,%eax
  801453:	c1 e0 10             	shl    $0x10,%eax
  801456:	89 c2                	mov    %eax,%edx
  801458:	8b 45 e0             	mov    -0x20(%ebp),%eax
  80145b:	0f b7 40 02          	movzwl 0x2(%eax),%eax
  80145f:	0f b7 c0             	movzwl %ax,%eax
  801462:	09 d0                	or     %edx,%eax
  801464:	83 ec 04             	sub    $0x4,%esp
  801467:	6a 00                	push   $0x0
  801469:	6a 00                	push   $0x0
  80146b:	50                   	push   %eax
  80146c:	e8 61 08 02 00       	call   821cd2 <PAL_CheckObstacle>
  801471:	83 c4 10             	add    $0x10,%esp
  801474:	85 c0                	test   %eax,%eax
  801476:	74 16                	je     80148e <PAL_MonsterChasePlayer+0x470>
  801478:	8b 45 e0             	mov    -0x20(%ebp),%eax
  80147b:	0f b7 55 f4          	movzwl -0xc(%ebp),%edx
  80147f:	66 89 50 02          	mov    %dx,0x2(%eax)
  801483:	8b 45 e0             	mov    -0x20(%ebp),%eax
  801486:	0f b7 55 f2          	movzwl -0xe(%ebp),%edx
  80148a:	66 89 50 04          	mov    %dx,0x4(%eax)
  80148e:	83 45 e4 01          	addl   $0x1,-0x1c(%ebp)
  801492:	83 7d e4 03          	cmpl   $0x3,-0x1c(%ebp)
  801496:	0f 8e f9 fe ff ff    	jle    801395 <PAL_MonsterChasePlayer+0x377>
  80149c:	0f b7 55 f6          	movzwl -0xa(%ebp),%edx
  8014a0:	0f b7 45 d4          	movzwl -0x2c(%ebp),%eax
  8014a4:	83 ec 08             	sub    $0x8,%esp
  8014a7:	52                   	push   %edx
  8014a8:	50                   	push   %eax
  8014a9:	e8 81 14 02 00       	call   82292f <PAL_NPCWalkOneStep>
  8014ae:	83 c4 10             	add    $0x10,%esp
  8014b1:	90                   	nop
  8014b2:	8d 65 f8             	lea    -0x8(%ebp),%esp
  8014b5:	5b                   	pop    %ebx
  8014b6:	5e                   	pop    %esi
  8014b7:	5d                   	pop    %ebp
  8014b8:	c3                   	ret    

008014b9 <PAL_AdditionalCredits>:
  8014b9:	55                   	push   %ebp
  8014ba:	89 e5                	mov    %esp,%ebp
  8014bc:	53                   	push   %ebx
  8014bd:	83 ec 34             	sub    $0x34,%esp
  8014c0:	e8 69 ec ff ff       	call   80012e <__x86.get_pc_thunk.bx>
  8014c5:	81 c3 3b 9b 04 00    	add    $0x49b3b,%ebx
  8014cb:	8d 83 f8 66 ff ff    	lea    -0x9908(%ebx),%eax
  8014d1:	89 45 c8             	mov    %eax,-0x38(%ebp)
  8014d4:	8d 83 20 67 ff ff    	lea    -0x98e0(%ebx),%eax
  8014da:	89 45 cc             	mov    %eax,-0x34(%ebp)
  8014dd:	8d 83 42 67 ff ff    	lea    -0x98be(%ebx),%eax
  8014e3:	89 45 d0             	mov    %eax,-0x30(%ebp)
  8014e6:	8d 83 44 67 ff ff    	lea    -0x98bc(%ebx),%eax
  8014ec:	89 45 d4             	mov    %eax,-0x2c(%ebp)
  8014ef:	8d 83 64 67 ff ff    	lea    -0x989c(%ebx),%eax
  8014f5:	89 45 d8             	mov    %eax,-0x28(%ebp)
  8014f8:	8d 83 42 67 ff ff    	lea    -0x98be(%ebx),%eax
  8014fe:	89 45 dc             	mov    %eax,-0x24(%ebp)
  801501:	8d 83 88 67 ff ff    	lea    -0x9878(%ebx),%eax
  801507:	89 45 e0             	mov    %eax,-0x20(%ebp)
  80150a:	8d 83 ab 67 ff ff    	lea    -0x9855(%ebx),%eax
  801510:	89 45 e4             	mov    %eax,-0x1c(%ebp)
  801513:	8d 83 42 67 ff ff    	lea    -0x98be(%ebx),%eax
  801519:	89 45 e8             	mov    %eax,-0x18(%ebp)
  80151c:	8d 83 c8 67 ff ff    	lea    -0x9838(%ebx),%eax
  801522:	89 45 ec             	mov    %eax,-0x14(%ebp)
  801525:	8d 83 ea 67 ff ff    	lea    -0x9816(%ebx),%eax
  80152b:	89 45 f0             	mov    %eax,-0x10(%ebp)
  80152e:	c7 45 f4 00 00 00 00 	movl   $0x0,-0xc(%ebp)
  801535:	e8 ce 86 02 00       	call   829c08 <PAL_DrawOpeningMenuBackground>
  80153a:	eb 32                	jmp    80156e <PAL_AdditionalCredits+0xb5>
  80153c:	8b 45 f4             	mov    -0xc(%ebp),%eax
  80153f:	c1 e0 04             	shl    $0x4,%eax
  801542:	83 c0 14             	add    $0x14,%eax
  801545:	0f b7 c0             	movzwl %ax,%eax
  801548:	c1 e0 10             	shl    $0x10,%eax
  80154b:	83 c8 19             	or     $0x19,%eax
  80154e:	89 c2                	mov    %eax,%edx
  801550:	8b 45 f4             	mov    -0xc(%ebp),%eax
  801553:	8b 44 85 c8          	mov    -0x38(%ebp,%eax,4),%eax
  801557:	83 ec 0c             	sub    $0xc,%esp
  80155a:	6a 00                	push   $0x0
  80155c:	6a 01                	push   $0x1
  80155e:	6a 2e                	push   $0x2e
  801560:	52                   	push   %edx
  801561:	50                   	push   %eax
  801562:	e8 75 78 02 00       	call   828ddc <PAL_DrawText>
  801567:	83 c4 20             	add    $0x20,%esp
  80156a:	83 45 f4 01          	addl   $0x1,-0xc(%ebp)
  80156e:	8b 45 f4             	mov    -0xc(%ebp),%eax
  801571:	8b 44 85 c8          	mov    -0x38(%ebp,%eax,4),%eax
  801575:	0f b6 00             	movzbl (%eax),%eax
  801578:	84 c0                	test   %al,%al
  80157a:	75 c0                	jne    80153c <PAL_AdditionalCredits+0x83>
  80157c:	83 ec 08             	sub    $0x8,%esp
  80157f:	6a 00                	push   $0x0
  801581:	6a 00                	push   $0x0
  801583:	e8 39 da 02 00       	call   82efc1 <PAL_SetPalette>
  801588:	83 c4 10             	add    $0x10,%esp
  80158b:	83 ec 0c             	sub    $0xc,%esp
  80158e:	6a 00                	push   $0x0
  801590:	e8 ed cb 02 00       	call   82e182 <VIDEO_UpdateScreen>
  801595:	83 c4 10             	add    $0x10,%esp
  801598:	83 ec 0c             	sub    $0xc,%esp
  80159b:	6a 00                	push   $0x0
  80159d:	e8 99 68 00 00       	call   807e3b <PAL_WaitForKey>
  8015a2:	83 c4 10             	add    $0x10,%esp
  8015a5:	90                   	nop
  8015a6:	8b 5d fc             	mov    -0x4(%ebp),%ebx
  8015a9:	c9                   	leave  
  8015aa:	c3                   	ret    

008015ab <PAL_InterpretInstruction>:
  8015ab:	55                   	push   %ebp
  8015ac:	89 e5                	mov    %esp,%ebp
  8015ae:	57                   	push   %edi
  8015af:	56                   	push   %esi
  8015b0:	53                   	push   %ebx
  8015b1:	81 ec 6c 01 00 00    	sub    $0x16c,%esp
  8015b7:	e8 72 eb ff ff       	call   80012e <__x86.get_pc_thunk.bx>
  8015bc:	81 c3 44 9a 04 00    	add    $0x49a44,%ebx
  8015c2:	8b 55 08             	mov    0x8(%ebp),%edx
  8015c5:	8b 45 0c             	mov    0xc(%ebp),%eax
  8015c8:	66 89 95 94 fe ff ff 	mov    %dx,-0x16c(%ebp)
  8015cf:	66 89 85 90 fe ff ff 	mov    %ax,-0x170(%ebp)
  8015d6:	c7 c0 c8 bf 85 00    	mov    $0x85bfc8,%eax
  8015dc:	8b 00                	mov    (%eax),%eax
  8015de:	8b 80 a8 25 00 00    	mov    0x25a8(%eax),%eax
  8015e4:	0f b7 95 94 fe ff ff 	movzwl -0x16c(%ebp),%edx
  8015eb:	c1 e2 03             	shl    $0x3,%edx
  8015ee:	01 d0                	add    %edx,%eax
  8015f0:	89 45 b4             	mov    %eax,-0x4c(%ebp)
  8015f3:	66 83 bd 90 fe ff ff 	cmpw   $0x0,-0x170(%ebp)
  8015fa:	00 
  8015fb:	74 22                	je     80161f <PAL_InterpretInstruction+0x74>
  8015fd:	c7 c0 c8 bf 85 00    	mov    $0x85bfc8,%eax
  801603:	8b 00                	mov    (%eax),%eax
  801605:	8b 40 20             	mov    0x20(%eax),%eax
  801608:	0f b7 95 90 fe ff ff 	movzwl -0x170(%ebp),%edx
  80160f:	81 c2 ff ff ff 07    	add    $0x7ffffff,%edx
  801615:	c1 e2 05             	shl    $0x5,%edx
  801618:	01 d0                	add    %edx,%eax
  80161a:	89 45 e4             	mov    %eax,-0x1c(%ebp)
  80161d:	eb 07                	jmp    801626 <PAL_InterpretInstruction+0x7b>
  80161f:	c7 45 e4 00 00 00 00 	movl   $0x0,-0x1c(%ebp)
  801626:	8b 45 b4             	mov    -0x4c(%ebp),%eax
  801629:	0f b7 40 02          	movzwl 0x2(%eax),%eax
  80162d:	66 85 c0             	test   %ax,%ax
  801630:	74 0d                	je     80163f <PAL_InterpretInstruction+0x94>
  801632:	8b 45 b4             	mov    -0x4c(%ebp),%eax
  801635:	0f b7 40 02          	movzwl 0x2(%eax),%eax
  801639:	66 83 f8 ff          	cmp    $0xffff,%ax
  80163d:	75 13                	jne    801652 <PAL_InterpretInstruction+0xa7>
  80163f:	8b 45 e4             	mov    -0x1c(%ebp),%eax
  801642:	89 45 e0             	mov    %eax,-0x20(%ebp)
  801645:	0f b7 85 90 fe ff ff 	movzwl -0x170(%ebp),%eax
  80164c:	66 89 45 c8          	mov    %ax,-0x38(%ebp)
  801650:	eb 41                	jmp    801693 <PAL_InterpretInstruction+0xe8>
  801652:	8b 45 b4             	mov    -0x4c(%ebp),%eax
  801655:	0f b7 40 02          	movzwl 0x2(%eax),%eax
  801659:	0f b7 c0             	movzwl %ax,%eax
  80165c:	83 e8 01             	sub    $0x1,%eax
  80165f:	89 45 d8             	mov    %eax,-0x28(%ebp)
  801662:	81 7d d8 00 90 00 00 	cmpl   $0x9000,-0x28(%ebp)
  801669:	7e 07                	jle    801672 <PAL_InterpretInstruction+0xc7>
  80166b:	81 6d d8 00 90 00 00 	subl   $0x9000,-0x28(%ebp)
  801672:	c7 c0 c8 bf 85 00    	mov    $0x85bfc8,%eax
  801678:	8b 00                	mov    (%eax),%eax
  80167a:	8b 40 20             	mov    0x20(%eax),%eax
  80167d:	8b 55 d8             	mov    -0x28(%ebp),%edx
  801680:	c1 e2 05             	shl    $0x5,%edx
  801683:	01 d0                	add    %edx,%eax
  801685:	89 45 e0             	mov    %eax,-0x20(%ebp)
  801688:	8b 45 b4             	mov    -0x4c(%ebp),%eax
  80168b:	0f b7 40 02          	movzwl 0x2(%eax),%eax
  80168f:	66 89 45 c8          	mov    %ax,-0x38(%ebp)
  801693:	8b 45 b4             	mov    -0x4c(%ebp),%eax
  801696:	0f b7 40 02          	movzwl 0x2(%eax),%eax
  80169a:	66 83 f8 04          	cmp    $0x4,%ax
  80169e:	77 2d                	ja     8016cd <PAL_InterpretInstruction+0x122>
  8016a0:	c7 c0 c8 bf 85 00    	mov    $0x85bfc8,%eax
  8016a6:	8b 08                	mov    (%eax),%ecx
  8016a8:	8b 45 b4             	mov    -0x4c(%ebp),%eax
  8016ab:	0f b7 40 02          	movzwl 0x2(%eax),%eax
  8016af:	0f b7 d0             	movzwl %ax,%edx
  8016b2:	89 d0                	mov    %edx,%eax
  8016b4:	c1 e0 02             	shl    $0x2,%eax
  8016b7:	01 d0                	add    %edx,%eax
  8016b9:	01 c0                	add    %eax,%eax
  8016bb:	01 c8                	add    %ecx,%eax
  8016bd:	05 f8 43 00 00       	add    $0x43f8,%eax
  8016c2:	0f b7 00             	movzwl (%eax),%eax
  8016c5:	0f b7 c0             	movzwl %ax,%eax
  8016c8:	89 45 dc             	mov    %eax,-0x24(%ebp)
  8016cb:	eb 15                	jmp    8016e2 <PAL_InterpretInstruction+0x137>
  8016cd:	c7 c0 c8 bf 85 00    	mov    $0x85bfc8,%eax
  8016d3:	8b 00                	mov    (%eax),%eax
  8016d5:	0f b7 80 f8 43 00 00 	movzwl 0x43f8(%eax),%eax
  8016dc:	0f b7 c0             	movzwl %ax,%eax
  8016df:	89 45 dc             	mov    %eax,-0x24(%ebp)
  8016e2:	8b 45 b4             	mov    -0x4c(%ebp),%eax
  8016e5:	0f b7 00             	movzwl (%eax),%eax
  8016e8:	0f b7 c0             	movzwl %ax,%eax
  8016eb:	83 e8 0b             	sub    $0xb,%eax
  8016ee:	3d 9b 00 00 00       	cmp    $0x9b,%eax
  8016f3:	0f 87 87 4d 00 00    	ja     806480 <.L100>
  8016f9:	c1 e0 02             	shl    $0x2,%eax
  8016fc:	8b 84 18 28 68 ff ff 	mov    -0x97d8(%eax,%ebx,1),%eax
  801703:	01 d8                	add    %ebx,%eax
  801705:	ff e0                	jmp    *%eax

00801707 <.L101>:
  801707:	8b 45 b4             	mov    -0x4c(%ebp),%eax
  80170a:	0f b7 00             	movzwl (%eax),%eax
  80170d:	8d 50 f5             	lea    -0xb(%eax),%edx
  801710:	8b 45 e4             	mov    -0x1c(%ebp),%eax
  801713:	66 89 50 14          	mov    %dx,0x14(%eax)
  801717:	0f b7 85 90 fe ff ff 	movzwl -0x170(%ebp),%eax
  80171e:	83 ec 08             	sub    $0x8,%esp
  801721:	6a 02                	push   $0x2
  801723:	50                   	push   %eax
  801724:	e8 06 12 02 00       	call   82292f <PAL_NPCWalkOneStep>
  801729:	83 c4 10             	add    $0x10,%esp
  80172c:	e9 12 4e 00 00       	jmp    806543 <.L548+0x7c>

00801731 <.L103>:
  801731:	8b 45 b4             	mov    -0x4c(%ebp),%eax
  801734:	0f b7 40 02          	movzwl 0x2(%eax),%eax
  801738:	66 83 f8 ff          	cmp    $0xffff,%ax
  80173c:	74 0e                	je     80174c <.L103+0x1b>
  80173e:	8b 45 b4             	mov    -0x4c(%ebp),%eax
  801741:	0f b7 50 02          	movzwl 0x2(%eax),%edx
  801745:	8b 45 e4             	mov    -0x1c(%ebp),%eax
  801748:	66 89 50 14          	mov    %dx,0x14(%eax)
  80174c:	8b 45 b4             	mov    -0x4c(%ebp),%eax
  80174f:	0f b7 40 04          	movzwl 0x4(%eax),%eax
  801753:	66 83 f8 ff          	cmp    $0xffff,%ax
  801757:	0f 84 6d 4d 00 00    	je     8064ca <.L548+0x3>
  80175d:	8b 45 b4             	mov    -0x4c(%ebp),%eax
  801760:	0f b7 50 04          	movzwl 0x4(%eax),%edx
  801764:	8b 45 e4             	mov    -0x1c(%ebp),%eax
  801767:	66 89 50 16          	mov    %dx,0x16(%eax)
  80176b:	e9 5a 4d 00 00       	jmp    8064ca <.L548+0x3>

00801770 <.L104>:
  801770:	8b 45 b4             	mov    -0x4c(%ebp),%eax
  801773:	0f b7 40 06          	movzwl 0x6(%eax),%eax
  801777:	0f b7 d8             	movzwl %ax,%ebx
  80177a:	8b 45 b4             	mov    -0x4c(%ebp),%eax
  80177d:	0f b7 40 04          	movzwl 0x4(%eax),%eax
  801781:	0f b7 c8             	movzwl %ax,%ecx
  801784:	8b 45 b4             	mov    -0x4c(%ebp),%eax
  801787:	0f b7 40 02          	movzwl 0x2(%eax),%eax
  80178b:	0f b7 d0             	movzwl %ax,%edx
  80178e:	0f b7 85 90 fe ff ff 	movzwl -0x170(%ebp),%eax
  801795:	83 ec 0c             	sub    $0xc,%esp
  801798:	6a 03                	push   $0x3
  80179a:	53                   	push   %ebx
  80179b:	51                   	push   %ecx
  80179c:	52                   	push   %edx
  80179d:	50                   	push   %eax
  80179e:	e8 f2 ef ff ff       	call   800795 <PAL_NPCWalkTo>
  8017a3:	83 c4 20             	add    $0x20,%esp
  8017a6:	85 c0                	test   %eax,%eax
  8017a8:	0f 85 1f 4d 00 00    	jne    8064cd <.L548+0x6>
  8017ae:	0f b7 85 94 fe ff ff 	movzwl -0x16c(%ebp),%eax
  8017b5:	83 e8 01             	sub    $0x1,%eax
  8017b8:	66 89 85 94 fe ff ff 	mov    %ax,-0x16c(%ebp)
  8017bf:	e9 09 4d 00 00       	jmp    8064cd <.L548+0x6>

008017c4 <.L105>:
  8017c4:	0f b7 95 90 fe ff ff 	movzwl -0x170(%ebp),%edx
  8017cb:	c7 c0 c8 bf 85 00    	mov    $0x85bfc8,%eax
  8017d1:	8b 00                	mov    (%eax),%eax
  8017d3:	8b 80 30 4d 00 00    	mov    0x4d30(%eax),%eax
  8017d9:	31 d0                	xor    %edx,%eax
  8017db:	83 e0 01             	and    $0x1,%eax
  8017de:	85 c0                	test   %eax,%eax
  8017e0:	74 54                	je     801836 <.L105+0x72>
  8017e2:	8b 45 b4             	mov    -0x4c(%ebp),%eax
  8017e5:	0f b7 40 06          	movzwl 0x6(%eax),%eax
  8017e9:	0f b7 d8             	movzwl %ax,%ebx
  8017ec:	8b 45 b4             	mov    -0x4c(%ebp),%eax
  8017ef:	0f b7 40 04          	movzwl 0x4(%eax),%eax
  8017f3:	0f b7 c8             	movzwl %ax,%ecx
  8017f6:	8b 45 b4             	mov    -0x4c(%ebp),%eax
  8017f9:	0f b7 40 02          	movzwl 0x2(%eax),%eax
  8017fd:	0f b7 d0             	movzwl %ax,%edx
  801800:	0f b7 85 90 fe ff ff 	movzwl -0x170(%ebp),%eax
  801807:	83 ec 0c             	sub    $0xc,%esp
  80180a:	6a 02                	push   $0x2
  80180c:	53                   	push   %ebx
  80180d:	51                   	push   %ecx
  80180e:	52                   	push   %edx
  80180f:	50                   	push   %eax
  801810:	e8 80 ef ff ff       	call   800795 <PAL_NPCWalkTo>
  801815:	83 c4 20             	add    $0x20,%esp
  801818:	85 c0                	test   %eax,%eax
  80181a:	0f 85 b0 4c 00 00    	jne    8064d0 <.L548+0x9>
  801820:	0f b7 85 94 fe ff ff 	movzwl -0x16c(%ebp),%eax
  801827:	83 e8 01             	sub    $0x1,%eax
  80182a:	66 89 85 94 fe ff ff 	mov    %ax,-0x16c(%ebp)
  801831:	e9 9a 4c 00 00       	jmp    8064d0 <.L548+0x9>
  801836:	0f b7 85 94 fe ff ff 	movzwl -0x16c(%ebp),%eax
  80183d:	83 e8 01             	sub    $0x1,%eax
  801840:	66 89 85 94 fe ff ff 	mov    %ax,-0x16c(%ebp)
  801847:	e9 84 4c 00 00       	jmp    8064d0 <.L548+0x9>

0080184c <.L106>:
  80184c:	8b 45 b4             	mov    -0x4c(%ebp),%eax
  80184f:	0f b7 50 04          	movzwl 0x4(%eax),%edx
  801853:	c7 c0 c8 bf 85 00    	mov    $0x85bfc8,%eax
  801859:	8b 00                	mov    (%eax),%eax
  80185b:	8b 80 ec 43 00 00    	mov    0x43ec(%eax),%eax
  801861:	01 c2                	add    %eax,%edx
  801863:	c7 c0 c8 bf 85 00    	mov    $0x85bfc8,%eax
  801869:	8b 00                	mov    (%eax),%eax
  80186b:	8b 80 f0 43 00 00    	mov    0x43f0(%eax),%eax
  801871:	01 c2                	add    %eax,%edx
  801873:	8b 45 e0             	mov    -0x20(%ebp),%eax
  801876:	66 89 50 02          	mov    %dx,0x2(%eax)
  80187a:	8b 45 b4             	mov    -0x4c(%ebp),%eax
  80187d:	0f b7 50 06          	movzwl 0x6(%eax),%edx
  801881:	c7 c0 c8 bf 85 00    	mov    $0x85bfc8,%eax
  801887:	8b 00                	mov    (%eax),%eax
  801889:	8b 80 ec 43 00 00    	mov    0x43ec(%eax),%eax
  80188f:	c1 e8 10             	shr    $0x10,%eax
  801892:	01 c2                	add    %eax,%edx
  801894:	c7 c0 c8 bf 85 00    	mov    $0x85bfc8,%eax
  80189a:	8b 00                	mov    (%eax),%eax
  80189c:	8b 80 f0 43 00 00    	mov    0x43f0(%eax),%eax
  8018a2:	c1 e8 10             	shr    $0x10,%eax
  8018a5:	01 c2                	add    %eax,%edx
  8018a7:	8b 45 e0             	mov    -0x20(%ebp),%eax
  8018aa:	66 89 50 04          	mov    %dx,0x4(%eax)
  8018ae:	e9 90 4c 00 00       	jmp    806543 <.L548+0x7c>

008018b3 <.L107>:
  8018b3:	8b 45 b4             	mov    -0x4c(%ebp),%eax
  8018b6:	0f b7 50 04          	movzwl 0x4(%eax),%edx
  8018ba:	8b 45 e0             	mov    -0x20(%ebp),%eax
  8018bd:	66 89 50 02          	mov    %dx,0x2(%eax)
  8018c1:	8b 45 b4             	mov    -0x4c(%ebp),%eax
  8018c4:	0f b7 50 06          	movzwl 0x6(%eax),%edx
  8018c8:	8b 45 e0             	mov    -0x20(%ebp),%eax
  8018cb:	66 89 50 04          	mov    %dx,0x4(%eax)
  8018cf:	e9 6f 4c 00 00       	jmp    806543 <.L548+0x7c>

008018d4 <.L108>:
  8018d4:	8b 45 b4             	mov    -0x4c(%ebp),%eax
  8018d7:	0f b7 50 02          	movzwl 0x2(%eax),%edx
  8018db:	8b 45 e4             	mov    -0x1c(%ebp),%eax
  8018de:	66 89 50 16          	mov    %dx,0x16(%eax)
  8018e2:	8b 45 e4             	mov    -0x1c(%ebp),%eax
  8018e5:	66 c7 40 14 00 00    	movw   $0x0,0x14(%eax)
  8018eb:	e9 53 4c 00 00       	jmp    806543 <.L548+0x7c>

008018f0 <.L109>:
  8018f0:	c7 c0 c8 bf 85 00    	mov    $0x85bfc8,%eax
  8018f6:	8b 00                	mov    (%eax),%eax
  8018f8:	8b 55 b4             	mov    -0x4c(%ebp),%edx
  8018fb:	0f b7 52 02          	movzwl 0x2(%edx),%edx
  8018ff:	66 89 90 48 44 00 00 	mov    %dx,0x4448(%eax)
  801906:	c7 c0 c8 bf 85 00    	mov    $0x85bfc8,%eax
  80190c:	8b 30                	mov    (%eax),%esi
  80190e:	8b 45 b4             	mov    -0x4c(%ebp),%eax
  801911:	0f b7 40 06          	movzwl 0x6(%eax),%eax
  801915:	0f b7 d0             	movzwl %ax,%edx
  801918:	c7 c0 c8 bf 85 00    	mov    $0x85bfc8,%eax
  80191e:	8b 00                	mov    (%eax),%eax
  801920:	0f b7 88 48 44 00 00 	movzwl 0x4448(%eax),%ecx
  801927:	89 c8                	mov    %ecx,%eax
  801929:	01 c0                	add    %eax,%eax
  80192b:	01 c1                	add    %eax,%ecx
  80192d:	8b 45 b4             	mov    -0x4c(%ebp),%eax
  801930:	0f b7 40 04          	movzwl 0x4(%eax),%eax
  801934:	01 c1                	add    %eax,%ecx
  801936:	89 d0                	mov    %edx,%eax
  801938:	c1 e0 02             	shl    $0x2,%eax
  80193b:	01 d0                	add    %edx,%eax
  80193d:	01 c0                	add    %eax,%eax
  80193f:	01 f0                	add    %esi,%eax
  801941:	05 fe 43 00 00       	add    $0x43fe,%eax
  801946:	66 89 08             	mov    %cx,(%eax)
  801949:	e9 f5 4b 00 00       	jmp    806543 <.L548+0x7c>

0080194e <.L110>:
  80194e:	8b 45 b4             	mov    -0x4c(%ebp),%eax
  801951:	0f b7 40 02          	movzwl 0x2(%eax),%eax
  801955:	66 85 c0             	test   %ax,%ax
  801958:	0f 84 75 4b 00 00    	je     8064d3 <.L548+0xc>
  80195e:	8b 45 b4             	mov    -0x4c(%ebp),%eax
  801961:	0f b7 50 04          	movzwl 0x4(%eax),%edx
  801965:	8b 45 e0             	mov    -0x20(%ebp),%eax
  801968:	66 89 50 14          	mov    %dx,0x14(%eax)
  80196c:	8b 45 b4             	mov    -0x4c(%ebp),%eax
  80196f:	0f b7 50 06          	movzwl 0x6(%eax),%edx
  801973:	8b 45 e0             	mov    -0x20(%ebp),%eax
  801976:	66 89 50 16          	mov    %dx,0x16(%eax)
  80197a:	e9 54 4b 00 00       	jmp    8064d3 <.L548+0xc>

0080197f <.L111>:
  80197f:	8b 45 b4             	mov    -0x4c(%ebp),%eax
  801982:	0f b7 40 02          	movzwl 0x2(%eax),%eax
  801986:	0f b7 c0             	movzwl %ax,%eax
  801989:	83 e8 0b             	sub    $0xb,%eax
  80198c:	89 45 d8             	mov    %eax,-0x28(%ebp)
  80198f:	c7 c0 c8 bf 85 00    	mov    $0x85bfc8,%eax
  801995:	8b 00                	mov    (%eax),%eax
  801997:	8b 55 d8             	mov    -0x28(%ebp),%edx
  80199a:	69 d2 84 03 00 00    	imul   $0x384,%edx,%edx
  8019a0:	81 c2 e0 2a 00 00    	add    $0x2ae0,%edx
  8019a6:	01 d0                	add    %edx,%eax
  8019a8:	83 c0 04             	add    $0x4,%eax
  8019ab:	89 45 b0             	mov    %eax,-0x50(%ebp)
  8019ae:	8b 45 b4             	mov    -0x4c(%ebp),%eax
  8019b1:	0f b7 40 04          	movzwl 0x4(%eax),%eax
  8019b5:	0f b7 d0             	movzwl %ax,%edx
  8019b8:	89 d0                	mov    %edx,%eax
  8019ba:	01 c0                	add    %eax,%eax
  8019bc:	01 d0                	add    %edx,%eax
  8019be:	01 c0                	add    %eax,%eax
  8019c0:	89 c2                	mov    %eax,%edx
  8019c2:	0f b7 85 90 fe ff ff 	movzwl -0x170(%ebp),%eax
  8019c9:	01 d0                	add    %edx,%eax
  8019cb:	8d 14 00             	lea    (%eax,%eax,1),%edx
  8019ce:	8b 45 b0             	mov    -0x50(%ebp),%eax
  8019d1:	01 c2                	add    %eax,%edx
  8019d3:	8b 45 b4             	mov    -0x4c(%ebp),%eax
  8019d6:	0f b7 40 06          	movzwl 0x6(%eax),%eax
  8019da:	66 89 02             	mov    %ax,(%edx)
  8019dd:	e9 61 4b 00 00       	jmp    806543 <.L548+0x7c>

008019e2 <.L112>:
  8019e2:	8b 45 b4             	mov    -0x4c(%ebp),%eax
  8019e5:	0f b7 40 02          	movzwl 0x2(%eax),%eax
  8019e9:	0f b7 c0             	movzwl %ax,%eax
  8019ec:	83 e8 0b             	sub    $0xb,%eax
  8019ef:	89 45 d8             	mov    %eax,-0x28(%ebp)
  8019f2:	8b 45 d8             	mov    -0x28(%ebp),%eax
  8019f5:	89 83 28 04 00 00    	mov    %eax,0x428(%ebx)
  8019fb:	8b 45 d8             	mov    -0x28(%ebp),%eax
  8019fe:	0f b7 d0             	movzwl %ax,%edx
  801a01:	0f b7 85 90 fe ff ff 	movzwl -0x170(%ebp),%eax
  801a08:	83 ec 08             	sub    $0x8,%esp
  801a0b:	52                   	push   %edx
  801a0c:	50                   	push   %eax
  801a0d:	e8 4e 99 00 00       	call   80b360 <PAL_RemoveEquipmentEffect>
  801a12:	83 c4 10             	add    $0x10,%esp
  801a15:	c7 c0 c8 bf 85 00    	mov    $0x85bfc8,%eax
  801a1b:	8b 08                	mov    (%eax),%ecx
  801a1d:	0f b7 b5 90 fe ff ff 	movzwl -0x170(%ebp),%esi
  801a24:	8b 55 d8             	mov    -0x28(%ebp),%edx
  801a27:	89 d0                	mov    %edx,%eax
  801a29:	01 c0                	add    %eax,%eax
  801a2b:	01 d0                	add    %edx,%eax
  801a2d:	01 c0                	add    %eax,%eax
  801a2f:	01 f0                	add    %esi,%eax
  801a31:	05 20 13 00 00       	add    $0x1320,%eax
  801a36:	0f b7 54 41 0c       	movzwl 0xc(%ecx,%eax,2),%edx
  801a3b:	8b 45 b4             	mov    -0x4c(%ebp),%eax
  801a3e:	0f b7 40 04          	movzwl 0x4(%eax),%eax
  801a42:	66 39 c2             	cmp    %ax,%dx
  801a45:	0f 84 8b 4a 00 00    	je     8064d6 <.L548+0xf>
  801a4b:	c7 c0 c8 bf 85 00    	mov    $0x85bfc8,%eax
  801a51:	8b 08                	mov    (%eax),%ecx
  801a53:	0f b7 b5 90 fe ff ff 	movzwl -0x170(%ebp),%esi
  801a5a:	8b 55 d8             	mov    -0x28(%ebp),%edx
  801a5d:	89 d0                	mov    %edx,%eax
  801a5f:	01 c0                	add    %eax,%eax
  801a61:	01 d0                	add    %edx,%eax
  801a63:	01 c0                	add    %eax,%eax
  801a65:	01 f0                	add    %esi,%eax
  801a67:	05 20 13 00 00       	add    $0x1320,%eax
  801a6c:	0f b7 44 41 0c       	movzwl 0xc(%ecx,%eax,2),%eax
  801a71:	66 89 45 ca          	mov    %ax,-0x36(%ebp)
  801a75:	c7 c0 c8 bf 85 00    	mov    $0x85bfc8,%eax
  801a7b:	8b 08                	mov    (%eax),%ecx
  801a7d:	0f b7 bd 90 fe ff ff 	movzwl -0x170(%ebp),%edi
  801a84:	8b 45 b4             	mov    -0x4c(%ebp),%eax
  801a87:	0f b7 70 04          	movzwl 0x4(%eax),%esi
  801a8b:	8b 55 d8             	mov    -0x28(%ebp),%edx
  801a8e:	89 d0                	mov    %edx,%eax
  801a90:	01 c0                	add    %eax,%eax
  801a92:	01 d0                	add    %edx,%eax
  801a94:	01 c0                	add    %eax,%eax
  801a96:	01 f8                	add    %edi,%eax
  801a98:	05 20 13 00 00       	add    $0x1320,%eax
  801a9d:	66 89 74 41 0c       	mov    %si,0xc(%ecx,%eax,2)
  801aa2:	8b 45 b4             	mov    -0x4c(%ebp),%eax
  801aa5:	0f b7 40 04          	movzwl 0x4(%eax),%eax
  801aa9:	0f b7 c0             	movzwl %ax,%eax
  801aac:	83 ec 08             	sub    $0x8,%esp
  801aaf:	6a ff                	push   $0xffffffff
  801ab1:	50                   	push   %eax
  801ab2:	e8 d7 91 00 00       	call   80ac8e <PAL_AddItemToInventory>
  801ab7:	83 c4 10             	add    $0x10,%esp
  801aba:	66 83 7d ca 00       	cmpw   $0x0,-0x36(%ebp)
  801abf:	74 12                	je     801ad3 <.L112+0xf1>
  801ac1:	0f b7 45 ca          	movzwl -0x36(%ebp),%eax
  801ac5:	83 ec 08             	sub    $0x8,%esp
  801ac8:	6a 01                	push   $0x1
  801aca:	50                   	push   %eax
  801acb:	e8 be 91 00 00       	call   80ac8e <PAL_AddItemToInventory>
  801ad0:	83 c4 10             	add    $0x10,%esp
  801ad3:	c7 c0 c8 bf 85 00    	mov    $0x85bfc8,%eax
  801ad9:	8b 00                	mov    (%eax),%eax
  801adb:	0f b7 55 ca          	movzwl -0x36(%ebp),%edx
  801adf:	66 89 90 e2 2a 00 00 	mov    %dx,0x2ae2(%eax)
  801ae6:	e9 eb 49 00 00       	jmp    8064d6 <.L548+0xf>

00801aeb <.L113>:
  801aeb:	c7 c0 c8 bf 85 00    	mov    $0x85bfc8,%eax
  801af1:	8b 00                	mov    (%eax),%eax
  801af3:	05 c8 25 00 00       	add    $0x25c8,%eax
  801af8:	89 45 ac             	mov    %eax,-0x54(%ebp)
  801afb:	8b 45 b4             	mov    -0x4c(%ebp),%eax
  801afe:	0f b7 40 06          	movzwl 0x6(%eax),%eax
  801b02:	66 85 c0             	test   %ax,%ax
  801b05:	75 0c                	jne    801b13 <.L113+0x28>
  801b07:	0f b7 85 90 fe ff ff 	movzwl -0x170(%ebp),%eax
  801b0e:	89 45 dc             	mov    %eax,-0x24(%ebp)
  801b11:	eb 10                	jmp    801b23 <.L113+0x38>
  801b13:	8b 45 b4             	mov    -0x4c(%ebp),%eax
  801b16:	0f b7 40 06          	movzwl 0x6(%eax),%eax
  801b1a:	0f b7 c0             	movzwl %ax,%eax
  801b1d:	83 e8 01             	sub    $0x1,%eax
  801b20:	89 45 dc             	mov    %eax,-0x24(%ebp)
  801b23:	8b 45 b4             	mov    -0x4c(%ebp),%eax
  801b26:	0f b7 40 02          	movzwl 0x2(%eax),%eax
  801b2a:	0f b7 d0             	movzwl %ax,%edx
  801b2d:	89 d0                	mov    %edx,%eax
  801b2f:	01 c0                	add    %eax,%eax
  801b31:	01 d0                	add    %edx,%eax
  801b33:	01 c0                	add    %eax,%eax
  801b35:	89 c2                	mov    %eax,%edx
  801b37:	8b 45 dc             	mov    -0x24(%ebp),%eax
  801b3a:	01 d0                	add    %edx,%eax
  801b3c:	8d 14 00             	lea    (%eax,%eax,1),%edx
  801b3f:	8b 45 ac             	mov    -0x54(%ebp),%eax
  801b42:	8d 0c 02             	lea    (%edx,%eax,1),%ecx
  801b45:	8b 45 b4             	mov    -0x4c(%ebp),%eax
  801b48:	0f b7 40 02          	movzwl 0x2(%eax),%eax
  801b4c:	0f b7 d0             	movzwl %ax,%edx
  801b4f:	89 d0                	mov    %edx,%eax
  801b51:	01 c0                	add    %eax,%eax
  801b53:	01 d0                	add    %edx,%eax
  801b55:	01 c0                	add    %eax,%eax
  801b57:	89 c2                	mov    %eax,%edx
  801b59:	8b 45 dc             	mov    -0x24(%ebp),%eax
  801b5c:	01 d0                	add    %edx,%eax
  801b5e:	8d 14 00             	lea    (%eax,%eax,1),%edx
  801b61:	8b 45 ac             	mov    -0x54(%ebp),%eax
  801b64:	01 d0                	add    %edx,%eax
  801b66:	0f b7 10             	movzwl (%eax),%edx
  801b69:	8b 45 b4             	mov    -0x4c(%ebp),%eax
  801b6c:	0f b7 40 04          	movzwl 0x4(%eax),%eax
  801b70:	01 d0                	add    %edx,%eax
  801b72:	66 89 01             	mov    %ax,(%ecx)
  801b75:	e9 c9 49 00 00       	jmp    806543 <.L548+0x7c>

00801b7a <.L114>:
  801b7a:	c7 c0 c8 bf 85 00    	mov    $0x85bfc8,%eax
  801b80:	8b 00                	mov    (%eax),%eax
  801b82:	05 c8 25 00 00       	add    $0x25c8,%eax
  801b87:	89 45 c4             	mov    %eax,-0x3c(%ebp)
  801b8a:	8b 83 28 04 00 00    	mov    0x428(%ebx),%eax
  801b90:	83 f8 ff             	cmp    $0xffffffff,%eax
  801b93:	74 22                	je     801bb7 <.L114+0x3d>
  801b95:	c7 c0 c8 bf 85 00    	mov    $0x85bfc8,%eax
  801b9b:	8b 00                	mov    (%eax),%eax
  801b9d:	8b 93 28 04 00 00    	mov    0x428(%ebx),%edx
  801ba3:	69 d2 84 03 00 00    	imul   $0x384,%edx,%edx
  801ba9:	81 c2 e0 2a 00 00    	add    $0x2ae0,%edx
  801baf:	01 d0                	add    %edx,%eax
  801bb1:	83 c0 04             	add    $0x4,%eax
  801bb4:	89 45 c4             	mov    %eax,-0x3c(%ebp)
  801bb7:	8b 45 b4             	mov    -0x4c(%ebp),%eax
  801bba:	0f b7 40 06          	movzwl 0x6(%eax),%eax
  801bbe:	66 85 c0             	test   %ax,%ax
  801bc1:	75 0c                	jne    801bcf <.L114+0x55>
  801bc3:	0f b7 85 90 fe ff ff 	movzwl -0x170(%ebp),%eax
  801bca:	89 45 dc             	mov    %eax,-0x24(%ebp)
  801bcd:	eb 10                	jmp    801bdf <.L114+0x65>
  801bcf:	8b 45 b4             	mov    -0x4c(%ebp),%eax
  801bd2:	0f b7 40 06          	movzwl 0x6(%eax),%eax
  801bd6:	0f b7 c0             	movzwl %ax,%eax
  801bd9:	83 e8 01             	sub    $0x1,%eax
  801bdc:	89 45 dc             	mov    %eax,-0x24(%ebp)
  801bdf:	8b 45 b4             	mov    -0x4c(%ebp),%eax
  801be2:	0f b7 40 02          	movzwl 0x2(%eax),%eax
  801be6:	0f b7 d0             	movzwl %ax,%edx
  801be9:	89 d0                	mov    %edx,%eax
  801beb:	01 c0                	add    %eax,%eax
  801bed:	01 d0                	add    %edx,%eax
  801bef:	01 c0                	add    %eax,%eax
  801bf1:	89 c2                	mov    %eax,%edx
  801bf3:	8b 45 dc             	mov    -0x24(%ebp),%eax
  801bf6:	01 d0                	add    %edx,%eax
  801bf8:	8d 14 00             	lea    (%eax,%eax,1),%edx
  801bfb:	8b 45 c4             	mov    -0x3c(%ebp),%eax
  801bfe:	01 c2                	add    %eax,%edx
  801c00:	8b 45 b4             	mov    -0x4c(%ebp),%eax
  801c03:	0f b7 40 04          	movzwl 0x4(%eax),%eax
  801c07:	66 89 02             	mov    %ax,(%edx)
  801c0a:	e9 34 49 00 00       	jmp    806543 <.L548+0x7c>

00801c0f <.L115>:
  801c0f:	8b 45 b4             	mov    -0x4c(%ebp),%eax
  801c12:	0f b7 40 02          	movzwl 0x2(%eax),%eax
  801c16:	66 85 c0             	test   %ax,%ax
  801c19:	74 68                	je     801c83 <.L115+0x74>
  801c1b:	c7 45 d8 00 00 00 00 	movl   $0x0,-0x28(%ebp)
  801c22:	eb 43                	jmp    801c67 <.L115+0x58>
  801c24:	c7 c0 c8 bf 85 00    	mov    $0x85bfc8,%eax
  801c2a:	8b 08                	mov    (%eax),%ecx
  801c2c:	8b 55 d8             	mov    -0x28(%ebp),%edx
  801c2f:	89 d0                	mov    %edx,%eax
  801c31:	c1 e0 02             	shl    $0x2,%eax
  801c34:	01 d0                	add    %edx,%eax
  801c36:	01 c0                	add    %eax,%eax
  801c38:	01 c8                	add    %ecx,%eax
  801c3a:	05 f8 43 00 00       	add    $0x43f8,%eax
  801c3f:	0f b7 00             	movzwl (%eax),%eax
  801c42:	66 89 45 ca          	mov    %ax,-0x36(%ebp)
  801c46:	8b 45 b4             	mov    -0x4c(%ebp),%eax
  801c49:	0f b7 40 04          	movzwl 0x4(%eax),%eax
  801c4d:	0f bf d0             	movswl %ax,%edx
  801c50:	0f b7 45 ca          	movzwl -0x36(%ebp),%eax
  801c54:	83 ec 04             	sub    $0x4,%esp
  801c57:	6a 00                	push   $0x0
  801c59:	52                   	push   %edx
  801c5a:	50                   	push   %eax
  801c5b:	e8 3b 94 00 00       	call   80b09b <PAL_IncreaseHPMP>
  801c60:	83 c4 10             	add    $0x10,%esp
  801c63:	83 45 d8 01          	addl   $0x1,-0x28(%ebp)
  801c67:	c7 c0 c8 bf 85 00    	mov    $0x85bfc8,%eax
  801c6d:	8b 00                	mov    (%eax),%eax
  801c6f:	0f b7 80 f6 43 00 00 	movzwl 0x43f6(%eax),%eax
  801c76:	0f b7 c0             	movzwl %ax,%eax
  801c79:	3b 45 d8             	cmp    -0x28(%ebp),%eax
  801c7c:	7d a6                	jge    801c24 <.L115+0x15>
  801c7e:	e9 56 48 00 00       	jmp    8064d9 <.L548+0x12>
  801c83:	8b 45 b4             	mov    -0x4c(%ebp),%eax
  801c86:	0f b7 40 04          	movzwl 0x4(%eax),%eax
  801c8a:	0f bf d0             	movswl %ax,%edx
  801c8d:	0f b7 85 90 fe ff ff 	movzwl -0x170(%ebp),%eax
  801c94:	83 ec 04             	sub    $0x4,%esp
  801c97:	6a 00                	push   $0x0
  801c99:	52                   	push   %edx
  801c9a:	50                   	push   %eax
  801c9b:	e8 fb 93 00 00       	call   80b09b <PAL_IncreaseHPMP>
  801ca0:	83 c4 10             	add    $0x10,%esp
  801ca3:	85 c0                	test   %eax,%eax
  801ca5:	0f 85 2e 48 00 00    	jne    8064d9 <.L548+0x12>
  801cab:	c7 83 24 04 00 00 00 	movl   $0x0,0x424(%ebx)
  801cb2:	00 00 00 
  801cb5:	e9 1f 48 00 00       	jmp    8064d9 <.L548+0x12>

00801cba <.L116>:
  801cba:	8b 45 b4             	mov    -0x4c(%ebp),%eax
  801cbd:	0f b7 40 02          	movzwl 0x2(%eax),%eax
  801cc1:	66 85 c0             	test   %ax,%ax
  801cc4:	74 68                	je     801d2e <.L116+0x74>
  801cc6:	c7 45 d8 00 00 00 00 	movl   $0x0,-0x28(%ebp)
  801ccd:	eb 43                	jmp    801d12 <.L116+0x58>
  801ccf:	c7 c0 c8 bf 85 00    	mov    $0x85bfc8,%eax
  801cd5:	8b 08                	mov    (%eax),%ecx
  801cd7:	8b 55 d8             	mov    -0x28(%ebp),%edx
  801cda:	89 d0                	mov    %edx,%eax
  801cdc:	c1 e0 02             	shl    $0x2,%eax
  801cdf:	01 d0                	add    %edx,%eax
  801ce1:	01 c0                	add    %eax,%eax
  801ce3:	01 c8                	add    %ecx,%eax
  801ce5:	05 f8 43 00 00       	add    $0x43f8,%eax
  801cea:	0f b7 00             	movzwl (%eax),%eax
  801ced:	66 89 45 ca          	mov    %ax,-0x36(%ebp)
  801cf1:	8b 45 b4             	mov    -0x4c(%ebp),%eax
  801cf4:	0f b7 40 04          	movzwl 0x4(%eax),%eax
  801cf8:	0f bf d0             	movswl %ax,%edx
  801cfb:	0f b7 45 ca          	movzwl -0x36(%ebp),%eax
  801cff:	83 ec 04             	sub    $0x4,%esp
  801d02:	52                   	push   %edx
  801d03:	6a 00                	push   $0x0
  801d05:	50                   	push   %eax
  801d06:	e8 90 93 00 00       	call   80b09b <PAL_IncreaseHPMP>
  801d0b:	83 c4 10             	add    $0x10,%esp
  801d0e:	83 45 d8 01          	addl   $0x1,-0x28(%ebp)
  801d12:	c7 c0 c8 bf 85 00    	mov    $0x85bfc8,%eax
  801d18:	8b 00                	mov    (%eax),%eax
  801d1a:	0f b7 80 f6 43 00 00 	movzwl 0x43f6(%eax),%eax
  801d21:	0f b7 c0             	movzwl %ax,%eax
  801d24:	3b 45 d8             	cmp    -0x28(%ebp),%eax
  801d27:	7d a6                	jge    801ccf <.L116+0x15>
  801d29:	e9 ae 47 00 00       	jmp    8064dc <.L548+0x15>
  801d2e:	8b 45 b4             	mov    -0x4c(%ebp),%eax
  801d31:	0f b7 40 04          	movzwl 0x4(%eax),%eax
  801d35:	0f bf d0             	movswl %ax,%edx
  801d38:	0f b7 85 90 fe ff ff 	movzwl -0x170(%ebp),%eax
  801d3f:	83 ec 04             	sub    $0x4,%esp
  801d42:	52                   	push   %edx
  801d43:	6a 00                	push   $0x0
  801d45:	50                   	push   %eax
  801d46:	e8 50 93 00 00       	call   80b09b <PAL_IncreaseHPMP>
  801d4b:	83 c4 10             	add    $0x10,%esp
  801d4e:	85 c0                	test   %eax,%eax
  801d50:	0f 85 86 47 00 00    	jne    8064dc <.L548+0x15>
  801d56:	c7 83 24 04 00 00 00 	movl   $0x0,0x424(%ebx)
  801d5d:	00 00 00 
  801d60:	e9 77 47 00 00       	jmp    8064dc <.L548+0x15>

00801d65 <.L117>:
  801d65:	8b 45 b4             	mov    -0x4c(%ebp),%eax
  801d68:	0f b7 40 02          	movzwl 0x2(%eax),%eax
  801d6c:	66 85 c0             	test   %ax,%ax
  801d6f:	74 71                	je     801de2 <.L117+0x7d>
  801d71:	c7 45 d8 00 00 00 00 	movl   $0x0,-0x28(%ebp)
  801d78:	eb 4c                	jmp    801dc6 <.L117+0x61>
  801d7a:	c7 c0 c8 bf 85 00    	mov    $0x85bfc8,%eax
  801d80:	8b 08                	mov    (%eax),%ecx
  801d82:	8b 55 d8             	mov    -0x28(%ebp),%edx
  801d85:	89 d0                	mov    %edx,%eax
  801d87:	c1 e0 02             	shl    $0x2,%eax
  801d8a:	01 d0                	add    %edx,%eax
  801d8c:	01 c0                	add    %eax,%eax
  801d8e:	01 c8                	add    %ecx,%eax
  801d90:	05 f8 43 00 00       	add    $0x43f8,%eax
  801d95:	0f b7 00             	movzwl (%eax),%eax
  801d98:	66 89 45 ca          	mov    %ax,-0x36(%ebp)
  801d9c:	8b 45 b4             	mov    -0x4c(%ebp),%eax
  801d9f:	0f b7 40 04          	movzwl 0x4(%eax),%eax
  801da3:	0f bf c8             	movswl %ax,%ecx
  801da6:	8b 45 b4             	mov    -0x4c(%ebp),%eax
  801da9:	0f b7 40 04          	movzwl 0x4(%eax),%eax
  801dad:	0f bf d0             	movswl %ax,%edx
  801db0:	0f b7 45 ca          	movzwl -0x36(%ebp),%eax
  801db4:	83 ec 04             	sub    $0x4,%esp
  801db7:	51                   	push   %ecx
  801db8:	52                   	push   %edx
  801db9:	50                   	push   %eax
  801dba:	e8 dc 92 00 00       	call   80b09b <PAL_IncreaseHPMP>
  801dbf:	83 c4 10             	add    $0x10,%esp
  801dc2:	83 45 d8 01          	addl   $0x1,-0x28(%ebp)
  801dc6:	c7 c0 c8 bf 85 00    	mov    $0x85bfc8,%eax
  801dcc:	8b 00                	mov    (%eax),%eax
  801dce:	0f b7 80 f6 43 00 00 	movzwl 0x43f6(%eax),%eax
  801dd5:	0f b7 c0             	movzwl %ax,%eax
  801dd8:	3b 45 d8             	cmp    -0x28(%ebp),%eax
  801ddb:	7d 9d                	jge    801d7a <.L117+0x15>
  801ddd:	e9 fd 46 00 00       	jmp    8064df <.L548+0x18>
  801de2:	8b 45 b4             	mov    -0x4c(%ebp),%eax
  801de5:	0f b7 40 04          	movzwl 0x4(%eax),%eax
  801de9:	0f bf c8             	movswl %ax,%ecx
  801dec:	8b 45 b4             	mov    -0x4c(%ebp),%eax
  801def:	0f b7 40 04          	movzwl 0x4(%eax),%eax
  801df3:	0f bf d0             	movswl %ax,%edx
  801df6:	0f b7 85 90 fe ff ff 	movzwl -0x170(%ebp),%eax
  801dfd:	83 ec 04             	sub    $0x4,%esp
  801e00:	51                   	push   %ecx
  801e01:	52                   	push   %edx
  801e02:	50                   	push   %eax
  801e03:	e8 93 92 00 00       	call   80b09b <PAL_IncreaseHPMP>
  801e08:	83 c4 10             	add    $0x10,%esp
  801e0b:	85 c0                	test   %eax,%eax
  801e0d:	0f 85 cc 46 00 00    	jne    8064df <.L548+0x18>
  801e13:	c7 83 24 04 00 00 00 	movl   $0x0,0x424(%ebx)
  801e1a:	00 00 00 
  801e1d:	e9 bd 46 00 00       	jmp    8064df <.L548+0x18>

00801e22 <.L118>:
  801e22:	8b 45 b4             	mov    -0x4c(%ebp),%eax
  801e25:	0f b7 40 02          	movzwl 0x2(%eax),%eax
  801e29:	66 85 c0             	test   %ax,%ax
  801e2c:	79 34                	jns    801e62 <.L118+0x40>
  801e2e:	c7 c0 c8 bf 85 00    	mov    $0x85bfc8,%eax
  801e34:	8b 00                	mov    (%eax),%eax
  801e36:	8b 90 68 44 00 00    	mov    0x4468(%eax),%edx
  801e3c:	8b 45 b4             	mov    -0x4c(%ebp),%eax
  801e3f:	0f b7 40 02          	movzwl 0x2(%eax),%eax
  801e43:	f7 d8                	neg    %eax
  801e45:	0f b7 c0             	movzwl %ax,%eax
  801e48:	39 c2                	cmp    %eax,%edx
  801e4a:	73 16                	jae    801e62 <.L118+0x40>
  801e4c:	8b 45 b4             	mov    -0x4c(%ebp),%eax
  801e4f:	0f b7 40 04          	movzwl 0x4(%eax),%eax
  801e53:	83 e8 01             	sub    $0x1,%eax
  801e56:	66 89 85 94 fe ff ff 	mov    %ax,-0x16c(%ebp)
  801e5d:	e9 e1 46 00 00       	jmp    806543 <.L548+0x7c>
  801e62:	c7 c0 c8 bf 85 00    	mov    $0x85bfc8,%eax
  801e68:	8b 00                	mov    (%eax),%eax
  801e6a:	c7 c2 c8 bf 85 00    	mov    $0x85bfc8,%edx
  801e70:	8b 12                	mov    (%edx),%edx
  801e72:	8b 8a 68 44 00 00    	mov    0x4468(%edx),%ecx
  801e78:	8b 55 b4             	mov    -0x4c(%ebp),%edx
  801e7b:	0f b7 52 02          	movzwl 0x2(%edx),%edx
  801e7f:	0f bf d2             	movswl %dx,%edx
  801e82:	01 ca                	add    %ecx,%edx
  801e84:	89 90 68 44 00 00    	mov    %edx,0x4468(%eax)
  801e8a:	e9 b4 46 00 00       	jmp    806543 <.L548+0x7c>

00801e8f <.L119>:
  801e8f:	8b 45 b4             	mov    -0x4c(%ebp),%eax
  801e92:	0f b7 40 04          	movzwl 0x4(%eax),%eax
  801e96:	0f bf d0             	movswl %ax,%edx
  801e99:	8b 45 b4             	mov    -0x4c(%ebp),%eax
  801e9c:	0f b7 40 02          	movzwl 0x2(%eax),%eax
  801ea0:	0f b7 c0             	movzwl %ax,%eax
  801ea3:	83 ec 08             	sub    $0x8,%esp
  801ea6:	52                   	push   %edx
  801ea7:	50                   	push   %eax
  801ea8:	e8 e1 8d 00 00       	call   80ac8e <PAL_AddItemToInventory>
  801ead:	83 c4 10             	add    $0x10,%esp
  801eb0:	e9 8e 46 00 00       	jmp    806543 <.L548+0x7c>

00801eb5 <.L120>:
  801eb5:	8b 45 b4             	mov    -0x4c(%ebp),%eax
  801eb8:	0f b7 40 04          	movzwl 0x4(%eax),%eax
  801ebc:	66 85 c0             	test   %ax,%ax
  801ebf:	74 10                	je     801ed1 <.L120+0x1c>
  801ec1:	8b 45 b4             	mov    -0x4c(%ebp),%eax
  801ec4:	0f b7 40 04          	movzwl 0x4(%eax),%eax
  801ec8:	0f b7 c0             	movzwl %ax,%eax
  801ecb:	f7 d8                	neg    %eax
  801ecd:	89 c2                	mov    %eax,%edx
  801ecf:	eb 05                	jmp    801ed6 <.L120+0x21>
  801ed1:	ba ff ff ff ff       	mov    $0xffffffff,%edx
  801ed6:	8b 45 b4             	mov    -0x4c(%ebp),%eax
  801ed9:	0f b7 40 02          	movzwl 0x2(%eax),%eax
  801edd:	0f b7 c0             	movzwl %ax,%eax
  801ee0:	83 ec 08             	sub    $0x8,%esp
  801ee3:	52                   	push   %edx
  801ee4:	50                   	push   %eax
  801ee5:	e8 a4 8d 00 00       	call   80ac8e <PAL_AddItemToInventory>
  801eea:	83 c4 10             	add    $0x10,%esp
  801eed:	85 c0                	test   %eax,%eax
  801eef:	0f 85 ed 45 00 00    	jne    8064e2 <.L548+0x1b>
  801ef5:	8b 45 b4             	mov    -0x4c(%ebp),%eax
  801ef8:	0f b7 40 04          	movzwl 0x4(%eax),%eax
  801efc:	0f b7 c0             	movzwl %ax,%eax
  801eff:	89 45 d0             	mov    %eax,-0x30(%ebp)
  801f02:	83 7d d0 00          	cmpl   $0x0,-0x30(%ebp)
  801f06:	75 07                	jne    801f0f <.L120+0x5a>
  801f08:	c7 45 d0 01 00 00 00 	movl   $0x1,-0x30(%ebp)
  801f0f:	c7 45 d8 00 00 00 00 	movl   $0x0,-0x28(%ebp)
  801f16:	e9 be 00 00 00       	jmp    801fd9 <.L120+0x124>
  801f1b:	c7 c0 c8 bf 85 00    	mov    $0x85bfc8,%eax
  801f21:	8b 08                	mov    (%eax),%ecx
  801f23:	8b 55 d8             	mov    -0x28(%ebp),%edx
  801f26:	89 d0                	mov    %edx,%eax
  801f28:	c1 e0 02             	shl    $0x2,%eax
  801f2b:	01 d0                	add    %edx,%eax
  801f2d:	01 c0                	add    %eax,%eax
  801f2f:	01 c8                	add    %ecx,%eax
  801f31:	05 f8 43 00 00       	add    $0x43f8,%eax
  801f36:	0f b7 00             	movzwl (%eax),%eax
  801f39:	66 89 45 ca          	mov    %ax,-0x36(%ebp)
  801f3d:	c7 45 d4 00 00 00 00 	movl   $0x0,-0x2c(%ebp)
  801f44:	e9 82 00 00 00       	jmp    801fcb <.L120+0x116>
  801f49:	c7 c0 c8 bf 85 00    	mov    $0x85bfc8,%eax
  801f4f:	8b 08                	mov    (%eax),%ecx
  801f51:	0f b7 75 ca          	movzwl -0x36(%ebp),%esi
  801f55:	8b 55 d4             	mov    -0x2c(%ebp),%edx
  801f58:	89 d0                	mov    %edx,%eax
  801f5a:	01 c0                	add    %eax,%eax
  801f5c:	01 d0                	add    %edx,%eax
  801f5e:	01 c0                	add    %eax,%eax
  801f60:	01 f0                	add    %esi,%eax
  801f62:	05 20 13 00 00       	add    $0x1320,%eax
  801f67:	0f b7 54 41 0c       	movzwl 0xc(%ecx,%eax,2),%edx
  801f6c:	8b 45 b4             	mov    -0x4c(%ebp),%eax
  801f6f:	0f b7 40 02          	movzwl 0x2(%eax),%eax
  801f73:	66 39 c2             	cmp    %ax,%dx
  801f76:	75 4f                	jne    801fc7 <.L120+0x112>
  801f78:	8b 45 d4             	mov    -0x2c(%ebp),%eax
  801f7b:	0f b7 d0             	movzwl %ax,%edx
  801f7e:	0f b7 45 ca          	movzwl -0x36(%ebp),%eax
  801f82:	83 ec 08             	sub    $0x8,%esp
  801f85:	52                   	push   %edx
  801f86:	50                   	push   %eax
  801f87:	e8 d4 93 00 00       	call   80b360 <PAL_RemoveEquipmentEffect>
  801f8c:	83 c4 10             	add    $0x10,%esp
  801f8f:	c7 c0 c8 bf 85 00    	mov    $0x85bfc8,%eax
  801f95:	8b 08                	mov    (%eax),%ecx
  801f97:	0f b7 75 ca          	movzwl -0x36(%ebp),%esi
  801f9b:	8b 55 d4             	mov    -0x2c(%ebp),%edx
  801f9e:	89 d0                	mov    %edx,%eax
  801fa0:	01 c0                	add    %eax,%eax
  801fa2:	01 d0                	add    %edx,%eax
  801fa4:	01 c0                	add    %eax,%eax
  801fa6:	01 f0                	add    %esi,%eax
  801fa8:	05 20 13 00 00       	add    $0x1320,%eax
  801fad:	66 c7 44 41 0c 00 00 	movw   $0x0,0xc(%ecx,%eax,2)
  801fb4:	83 6d d0 01          	subl   $0x1,-0x30(%ebp)
  801fb8:	83 7d d0 00          	cmpl   $0x0,-0x30(%ebp)
  801fbc:	75 09                	jne    801fc7 <.L120+0x112>
  801fbe:	c7 45 d8 0f 27 00 00 	movl   $0x270f,-0x28(%ebp)
  801fc5:	eb 0e                	jmp    801fd5 <.L120+0x120>
  801fc7:	83 45 d4 01          	addl   $0x1,-0x2c(%ebp)
  801fcb:	83 7d d4 05          	cmpl   $0x5,-0x2c(%ebp)
  801fcf:	0f 8e 74 ff ff ff    	jle    801f49 <.L120+0x94>
  801fd5:	83 45 d8 01          	addl   $0x1,-0x28(%ebp)
  801fd9:	c7 c0 c8 bf 85 00    	mov    $0x85bfc8,%eax
  801fdf:	8b 00                	mov    (%eax),%eax
  801fe1:	0f b7 80 f6 43 00 00 	movzwl 0x43f6(%eax),%eax
  801fe8:	0f b7 c0             	movzwl %ax,%eax
  801feb:	3b 45 d8             	cmp    -0x28(%ebp),%eax
  801fee:	0f 8d 27 ff ff ff    	jge    801f1b <.L120+0x66>
  801ff4:	83 7d d0 00          	cmpl   $0x0,-0x30(%ebp)
  801ff8:	0f 8e e4 44 00 00    	jle    8064e2 <.L548+0x1b>
  801ffe:	8b 45 b4             	mov    -0x4c(%ebp),%eax
  802001:	0f b7 40 06          	movzwl 0x6(%eax),%eax
  802005:	66 85 c0             	test   %ax,%ax
  802008:	0f 84 d4 44 00 00    	je     8064e2 <.L548+0x1b>
  80200e:	8b 45 b4             	mov    -0x4c(%ebp),%eax
  802011:	0f b7 40 06          	movzwl 0x6(%eax),%eax
  802015:	83 e8 01             	sub    $0x1,%eax
  802018:	66 89 85 94 fe ff ff 	mov    %ax,-0x16c(%ebp)
  80201f:	e9 be 44 00 00       	jmp    8064e2 <.L548+0x1b>

00802024 <.L121>:
  802024:	8b 45 b4             	mov    -0x4c(%ebp),%eax
  802027:	0f b7 40 02          	movzwl 0x2(%eax),%eax
  80202b:	66 85 c0             	test   %ax,%ax
  80202e:	0f 84 80 00 00 00    	je     8020b4 <.L121+0x90>
  802034:	c7 45 d8 00 00 00 00 	movl   $0x0,-0x28(%ebp)
  80203b:	eb 5d                	jmp    80209a <.L121+0x76>
  80203d:	c7 c2 c0 31 86 00    	mov    $0x8631c0,%edx
  802043:	8b 45 d8             	mov    -0x28(%ebp),%eax
  802046:	69 c0 cc 00 00 00    	imul   $0xcc,%eax,%eax
  80204c:	01 d0                	add    %edx,%eax
  80204e:	05 b4 00 00 00       	add    $0xb4,%eax
  802053:	0f b7 00             	movzwl (%eax),%eax
  802056:	66 85 c0             	test   %ax,%ax
  802059:	74 3b                	je     802096 <.L121+0x72>
  80205b:	c7 c2 c0 31 86 00    	mov    $0x8631c0,%edx
  802061:	8b 45 d8             	mov    -0x28(%ebp),%eax
  802064:	69 c0 cc 00 00 00    	imul   $0xcc,%eax,%eax
  80206a:	01 d0                	add    %edx,%eax
  80206c:	05 cc 00 00 00       	add    $0xcc,%eax
  802071:	0f b7 10             	movzwl (%eax),%edx
  802074:	8b 45 b4             	mov    -0x4c(%ebp),%eax
  802077:	0f b7 40 04          	movzwl 0x4(%eax),%eax
  80207b:	29 c2                	sub    %eax,%edx
  80207d:	c7 c1 c0 31 86 00    	mov    $0x8631c0,%ecx
  802083:	8b 45 d8             	mov    -0x28(%ebp),%eax
  802086:	69 c0 cc 00 00 00    	imul   $0xcc,%eax,%eax
  80208c:	01 c8                	add    %ecx,%eax
  80208e:	05 cc 00 00 00       	add    $0xcc,%eax
  802093:	66 89 10             	mov    %dx,(%eax)
  802096:	83 45 d8 01          	addl   $0x1,-0x28(%ebp)
  80209a:	c7 c0 c0 31 86 00    	mov    $0x8631c0,%eax
  8020a0:	0f b7 80 b0 04 00 00 	movzwl 0x4b0(%eax),%eax
  8020a7:	0f b7 c0             	movzwl %ax,%eax
  8020aa:	3b 45 d8             	cmp    -0x28(%ebp),%eax
  8020ad:	7d 8e                	jge    80203d <.L121+0x19>
  8020af:	e9 8f 44 00 00       	jmp    806543 <.L548+0x7c>
  8020b4:	0f b7 b5 90 fe ff ff 	movzwl -0x170(%ebp),%esi
  8020bb:	0f b7 85 90 fe ff ff 	movzwl -0x170(%ebp),%eax
  8020c2:	c7 c2 c0 31 86 00    	mov    $0x8631c0,%edx
  8020c8:	69 c0 cc 00 00 00    	imul   $0xcc,%eax,%eax
  8020ce:	01 d0                	add    %edx,%eax
  8020d0:	05 cc 00 00 00       	add    $0xcc,%eax
  8020d5:	0f b7 10             	movzwl (%eax),%edx
  8020d8:	8b 45 b4             	mov    -0x4c(%ebp),%eax
  8020db:	0f b7 40 04          	movzwl 0x4(%eax),%eax
  8020df:	29 c2                	sub    %eax,%edx
  8020e1:	c7 c1 c0 31 86 00    	mov    $0x8631c0,%ecx
  8020e7:	69 c6 cc 00 00 00    	imul   $0xcc,%esi,%eax
  8020ed:	01 c8                	add    %ecx,%eax
  8020ef:	05 cc 00 00 00       	add    $0xcc,%eax
  8020f4:	66 89 10             	mov    %dx,(%eax)
  8020f7:	e9 47 44 00 00       	jmp    806543 <.L548+0x7c>

008020fc <.L122>:
  8020fc:	8b 45 b4             	mov    -0x4c(%ebp),%eax
  8020ff:	0f b7 40 02          	movzwl 0x2(%eax),%eax
  802103:	66 85 c0             	test   %ax,%ax
  802106:	0f 84 19 01 00 00    	je     802225 <.L122+0x129>
  80210c:	c7 83 24 04 00 00 00 	movl   $0x0,0x424(%ebx)
  802113:	00 00 00 
  802116:	c7 45 d8 00 00 00 00 	movl   $0x0,-0x28(%ebp)
  80211d:	e9 e3 00 00 00       	jmp    802205 <.L122+0x109>
  802122:	c7 c0 c8 bf 85 00    	mov    $0x85bfc8,%eax
  802128:	8b 08                	mov    (%eax),%ecx
  80212a:	8b 55 d8             	mov    -0x28(%ebp),%edx
  80212d:	89 d0                	mov    %edx,%eax
  80212f:	c1 e0 02             	shl    $0x2,%eax
  802132:	01 d0                	add    %edx,%eax
  802134:	01 c0                	add    %eax,%eax
  802136:	01 c8                	add    %ecx,%eax
  802138:	05 f8 43 00 00       	add    $0x43f8,%eax
  80213d:	0f b7 00             	movzwl (%eax),%eax
  802140:	66 89 45 ca          	mov    %ax,-0x36(%ebp)
  802144:	c7 c0 c8 bf 85 00    	mov    $0x85bfc8,%eax
  80214a:	8b 00                	mov    (%eax),%eax
  80214c:	0f b7 55 ca          	movzwl -0x36(%ebp),%edx
  802150:	81 c2 10 13 00 00    	add    $0x1310,%edx
  802156:	0f b7 44 50 14       	movzwl 0x14(%eax,%edx,2),%eax
  80215b:	66 85 c0             	test   %ax,%ax
  80215e:	0f 85 9d 00 00 00    	jne    802201 <.L122+0x105>
  802164:	c7 c0 c8 bf 85 00    	mov    $0x85bfc8,%eax
  80216a:	8b 30                	mov    (%eax),%esi
  80216c:	0f b7 7d ca          	movzwl -0x36(%ebp),%edi
  802170:	c7 c0 c8 bf 85 00    	mov    $0x85bfc8,%eax
  802176:	8b 00                	mov    (%eax),%eax
  802178:	0f b7 55 ca          	movzwl -0x36(%ebp),%edx
  80217c:	81 c2 08 13 00 00    	add    $0x1308,%edx
  802182:	0f b7 44 50 0c       	movzwl 0xc(%eax,%edx,2),%eax
  802187:	0f b7 d0             	movzwl %ax,%edx
  80218a:	8b 45 b4             	mov    -0x4c(%ebp),%eax
  80218d:	0f b7 40 04          	movzwl 0x4(%eax),%eax
  802191:	0f b7 c0             	movzwl %ax,%eax
  802194:	89 d1                	mov    %edx,%ecx
  802196:	0f af c8             	imul   %eax,%ecx
  802199:	ba 67 66 66 66       	mov    $0x66666667,%edx
  80219e:	89 c8                	mov    %ecx,%eax
  8021a0:	f7 ea                	imul   %edx
  8021a2:	c1 fa 02             	sar    $0x2,%edx
  8021a5:	89 c8                	mov    %ecx,%eax
  8021a7:	c1 f8 1f             	sar    $0x1f,%eax
  8021aa:	29 c2                	sub    %eax,%edx
  8021ac:	89 d0                	mov    %edx,%eax
  8021ae:	89 c2                	mov    %eax,%edx
  8021b0:	8d 87 10 13 00 00    	lea    0x1310(%edi),%eax
  8021b6:	66 89 54 46 14       	mov    %dx,0x14(%esi,%eax,2)
  8021bb:	0f b7 45 ca          	movzwl -0x36(%ebp),%eax
  8021bf:	83 ec 08             	sub    $0x8,%esp
  8021c2:	6a 03                	push   $0x3
  8021c4:	50                   	push   %eax
  8021c5:	e8 f4 95 00 00       	call   80b7be <PAL_CurePoisonByLevel>
  8021ca:	83 c4 10             	add    $0x10,%esp
  8021cd:	c7 45 d0 00 00 00 00 	movl   $0x0,-0x30(%ebp)
  8021d4:	eb 1b                	jmp    8021f1 <.L122+0xf5>
  8021d6:	8b 45 d0             	mov    -0x30(%ebp),%eax
  8021d9:	0f b7 d0             	movzwl %ax,%edx
  8021dc:	0f b7 45 ca          	movzwl -0x36(%ebp),%eax
  8021e0:	83 ec 08             	sub    $0x8,%esp
  8021e3:	52                   	push   %edx
  8021e4:	50                   	push   %eax
  8021e5:	e8 78 a1 00 00       	call   80c362 <PAL_RemovePlayerStatus>
  8021ea:	83 c4 10             	add    $0x10,%esp
  8021ed:	83 45 d0 01          	addl   $0x1,-0x30(%ebp)
  8021f1:	83 7d d0 08          	cmpl   $0x8,-0x30(%ebp)
  8021f5:	7e df                	jle    8021d6 <.L122+0xda>
  8021f7:	c7 83 24 04 00 00 01 	movl   $0x1,0x424(%ebx)
  8021fe:	00 00 00 
  802201:	83 45 d8 01          	addl   $0x1,-0x28(%ebp)
  802205:	c7 c0 c8 bf 85 00    	mov    $0x85bfc8,%eax
  80220b:	8b 00                	mov    (%eax),%eax
  80220d:	0f b7 80 f6 43 00 00 	movzwl 0x43f6(%eax),%eax
  802214:	0f b7 c0             	movzwl %ax,%eax
  802217:	3b 45 d8             	cmp    -0x28(%ebp),%eax
  80221a:	0f 8d 02 ff ff ff    	jge    802122 <.L122+0x26>
  802220:	e9 1e 43 00 00       	jmp    806543 <.L548+0x7c>
  802225:	c7 c0 c8 bf 85 00    	mov    $0x85bfc8,%eax
  80222b:	8b 00                	mov    (%eax),%eax
  80222d:	0f b7 95 90 fe ff ff 	movzwl -0x170(%ebp),%edx
  802234:	81 c2 10 13 00 00    	add    $0x1310,%edx
  80223a:	0f b7 44 50 14       	movzwl 0x14(%eax,%edx,2),%eax
  80223f:	66 85 c0             	test   %ax,%ax
  802242:	0f 85 a4 00 00 00    	jne    8022ec <.L122+0x1f0>
  802248:	c7 c0 c8 bf 85 00    	mov    $0x85bfc8,%eax
  80224e:	8b 30                	mov    (%eax),%esi
  802250:	0f b7 bd 90 fe ff ff 	movzwl -0x170(%ebp),%edi
  802257:	c7 c0 c8 bf 85 00    	mov    $0x85bfc8,%eax
  80225d:	8b 00                	mov    (%eax),%eax
  80225f:	0f b7 95 90 fe ff ff 	movzwl -0x170(%ebp),%edx
  802266:	81 c2 08 13 00 00    	add    $0x1308,%edx
  80226c:	0f b7 44 50 0c       	movzwl 0xc(%eax,%edx,2),%eax
  802271:	0f b7 d0             	movzwl %ax,%edx
  802274:	8b 45 b4             	mov    -0x4c(%ebp),%eax
  802277:	0f b7 40 04          	movzwl 0x4(%eax),%eax
  80227b:	0f b7 c0             	movzwl %ax,%eax
  80227e:	89 d1                	mov    %edx,%ecx
  802280:	0f af c8             	imul   %eax,%ecx
  802283:	ba 67 66 66 66       	mov    $0x66666667,%edx
  802288:	89 c8                	mov    %ecx,%eax
  80228a:	f7 ea                	imul   %edx
  80228c:	c1 fa 02             	sar    $0x2,%edx
  80228f:	89 c8                	mov    %ecx,%eax
  802291:	c1 f8 1f             	sar    $0x1f,%eax
  802294:	29 c2                	sub    %eax,%edx
  802296:	89 d0                	mov    %edx,%eax
  802298:	89 c2                	mov    %eax,%edx
  80229a:	8d 87 10 13 00 00    	lea    0x1310(%edi),%eax
  8022a0:	66 89 54 46 14       	mov    %dx,0x14(%esi,%eax,2)
  8022a5:	0f b7 85 90 fe ff ff 	movzwl -0x170(%ebp),%eax
  8022ac:	83 ec 08             	sub    $0x8,%esp
  8022af:	6a 03                	push   $0x3
  8022b1:	50                   	push   %eax
  8022b2:	e8 07 95 00 00       	call   80b7be <PAL_CurePoisonByLevel>
  8022b7:	83 c4 10             	add    $0x10,%esp
  8022ba:	c7 45 d0 00 00 00 00 	movl   $0x0,-0x30(%ebp)
  8022c1:	eb 1e                	jmp    8022e1 <.L122+0x1e5>
  8022c3:	8b 45 d0             	mov    -0x30(%ebp),%eax
  8022c6:	0f b7 d0             	movzwl %ax,%edx
  8022c9:	0f b7 85 90 fe ff ff 	movzwl -0x170(%ebp),%eax
  8022d0:	83 ec 08             	sub    $0x8,%esp
  8022d3:	52                   	push   %edx
  8022d4:	50                   	push   %eax
  8022d5:	e8 88 a0 00 00       	call   80c362 <PAL_RemovePlayerStatus>
  8022da:	83 c4 10             	add    $0x10,%esp
  8022dd:	83 45 d0 01          	addl   $0x1,-0x30(%ebp)
  8022e1:	83 7d d0 08          	cmpl   $0x8,-0x30(%ebp)
  8022e5:	7e dc                	jle    8022c3 <.L122+0x1c7>
  8022e7:	e9 57 42 00 00       	jmp    806543 <.L548+0x7c>
  8022ec:	c7 83 24 04 00 00 00 	movl   $0x0,0x424(%ebx)
  8022f3:	00 00 00 
  8022f6:	e9 48 42 00 00       	jmp    806543 <.L548+0x7c>

008022fb <.L123>:
  8022fb:	8b 45 b4             	mov    -0x4c(%ebp),%eax
  8022fe:	0f b7 40 04          	movzwl 0x4(%eax),%eax
  802302:	66 85 c0             	test   %ax,%ax
  802305:	0f 85 9b 00 00 00    	jne    8023a6 <.L123+0xab>
  80230b:	c7 45 d8 00 00 00 00 	movl   $0x0,-0x28(%ebp)
  802312:	e9 80 00 00 00       	jmp    802397 <.L123+0x9c>
  802317:	c7 c0 c8 bf 85 00    	mov    $0x85bfc8,%eax
  80231d:	8b 08                	mov    (%eax),%ecx
  80231f:	8b 55 d8             	mov    -0x28(%ebp),%edx
  802322:	89 d0                	mov    %edx,%eax
  802324:	01 c0                	add    %eax,%eax
  802326:	01 d0                	add    %edx,%eax
  802328:	01 c0                	add    %eax,%eax
  80232a:	8b 55 dc             	mov    -0x24(%ebp),%edx
  80232d:	01 d0                	add    %edx,%eax
  80232f:	05 20 13 00 00       	add    $0x1320,%eax
  802334:	0f b7 44 41 0c       	movzwl 0xc(%ecx,%eax,2),%eax
  802339:	66 89 45 ca          	mov    %ax,-0x36(%ebp)
  80233d:	66 83 7d ca 00       	cmpw   $0x0,-0x36(%ebp)
  802342:	74 36                	je     80237a <.L123+0x7f>
  802344:	0f b7 45 ca          	movzwl -0x36(%ebp),%eax
  802348:	83 ec 08             	sub    $0x8,%esp
  80234b:	6a 01                	push   $0x1
  80234d:	50                   	push   %eax
  80234e:	e8 3b 89 00 00       	call   80ac8e <PAL_AddItemToInventory>
  802353:	83 c4 10             	add    $0x10,%esp
  802356:	c7 c0 c8 bf 85 00    	mov    $0x85bfc8,%eax
  80235c:	8b 08                	mov    (%eax),%ecx
  80235e:	8b 55 d8             	mov    -0x28(%ebp),%edx
  802361:	89 d0                	mov    %edx,%eax
  802363:	01 c0                	add    %eax,%eax
  802365:	01 d0                	add    %edx,%eax
  802367:	01 c0                	add    %eax,%eax
  802369:	8b 55 dc             	mov    -0x24(%ebp),%edx
  80236c:	01 d0                	add    %edx,%eax
  80236e:	05 20 13 00 00       	add    $0x1320,%eax
  802373:	66 c7 44 41 0c 00 00 	movw   $0x0,0xc(%ecx,%eax,2)
  80237a:	8b 45 d8             	mov    -0x28(%ebp),%eax
  80237d:	0f b7 d0             	movzwl %ax,%edx
  802380:	8b 45 dc             	mov    -0x24(%ebp),%eax
  802383:	0f b7 c0             	movzwl %ax,%eax
  802386:	83 ec 08             	sub    $0x8,%esp
  802389:	52                   	push   %edx
  80238a:	50                   	push   %eax
  80238b:	e8 d0 8f 00 00       	call   80b360 <PAL_RemoveEquipmentEffect>
  802390:	83 c4 10             	add    $0x10,%esp
  802393:	83 45 d8 01          	addl   $0x1,-0x28(%ebp)
  802397:	83 7d d8 05          	cmpl   $0x5,-0x28(%ebp)
  80239b:	0f 8e 76 ff ff ff    	jle    802317 <.L123+0x1c>
  8023a1:	e9 3f 41 00 00       	jmp    8064e5 <.L548+0x1e>
  8023a6:	c7 c0 c8 bf 85 00    	mov    $0x85bfc8,%eax
  8023ac:	8b 08                	mov    (%eax),%ecx
  8023ae:	8b 45 b4             	mov    -0x4c(%ebp),%eax
  8023b1:	0f b7 40 04          	movzwl 0x4(%eax),%eax
  8023b5:	0f b7 c0             	movzwl %ax,%eax
  8023b8:	8d 50 ff             	lea    -0x1(%eax),%edx
  8023bb:	89 d0                	mov    %edx,%eax
  8023bd:	01 c0                	add    %eax,%eax
  8023bf:	01 d0                	add    %edx,%eax
  8023c1:	01 c0                	add    %eax,%eax
  8023c3:	8b 55 dc             	mov    -0x24(%ebp),%edx
  8023c6:	01 d0                	add    %edx,%eax
  8023c8:	05 20 13 00 00       	add    $0x1320,%eax
  8023cd:	0f b7 44 41 0c       	movzwl 0xc(%ecx,%eax,2),%eax
  8023d2:	66 89 45 ca          	mov    %ax,-0x36(%ebp)
  8023d6:	66 83 7d ca 00       	cmpw   $0x0,-0x36(%ebp)
  8023db:	0f 84 04 41 00 00    	je     8064e5 <.L548+0x1e>
  8023e1:	8b 45 b4             	mov    -0x4c(%ebp),%eax
  8023e4:	0f b7 40 04          	movzwl 0x4(%eax),%eax
  8023e8:	83 e8 01             	sub    $0x1,%eax
  8023eb:	0f b7 d0             	movzwl %ax,%edx
  8023ee:	8b 45 dc             	mov    -0x24(%ebp),%eax
  8023f1:	0f b7 c0             	movzwl %ax,%eax
  8023f4:	83 ec 08             	sub    $0x8,%esp
  8023f7:	52                   	push   %edx
  8023f8:	50                   	push   %eax
  8023f9:	e8 62 8f 00 00       	call   80b360 <PAL_RemoveEquipmentEffect>
  8023fe:	83 c4 10             	add    $0x10,%esp
  802401:	0f b7 45 ca          	movzwl -0x36(%ebp),%eax
  802405:	83 ec 08             	sub    $0x8,%esp
  802408:	6a 01                	push   $0x1
  80240a:	50                   	push   %eax
  80240b:	e8 7e 88 00 00       	call   80ac8e <PAL_AddItemToInventory>
  802410:	83 c4 10             	add    $0x10,%esp
  802413:	c7 c0 c8 bf 85 00    	mov    $0x85bfc8,%eax
  802419:	8b 08                	mov    (%eax),%ecx
  80241b:	8b 45 b4             	mov    -0x4c(%ebp),%eax
  80241e:	0f b7 40 04          	movzwl 0x4(%eax),%eax
  802422:	0f b7 c0             	movzwl %ax,%eax
  802425:	8d 50 ff             	lea    -0x1(%eax),%edx
  802428:	89 d0                	mov    %edx,%eax
  80242a:	01 c0                	add    %eax,%eax
  80242c:	01 d0                	add    %edx,%eax
  80242e:	01 c0                	add    %eax,%eax
  802430:	8b 55 dc             	mov    -0x24(%ebp),%edx
  802433:	01 d0                	add    %edx,%eax
  802435:	05 20 13 00 00       	add    $0x1320,%eax
  80243a:	66 c7 44 41 0c 00 00 	movw   $0x0,0xc(%ecx,%eax,2)
  802441:	e9 9f 40 00 00       	jmp    8064e5 <.L548+0x1e>

00802446 <.L124>:
  802446:	8b 45 b4             	mov    -0x4c(%ebp),%eax
  802449:	0f b7 40 02          	movzwl 0x2(%eax),%eax
  80244d:	66 85 c0             	test   %ax,%ax
  802450:	0f 84 92 40 00 00    	je     8064e8 <.L548+0x21>
  802456:	8b 45 b4             	mov    -0x4c(%ebp),%eax
  802459:	0f b7 50 04          	movzwl 0x4(%eax),%edx
  80245d:	8b 45 e0             	mov    -0x20(%ebp),%eax
  802460:	66 89 50 0a          	mov    %dx,0xa(%eax)
  802464:	e9 7f 40 00 00       	jmp    8064e8 <.L548+0x21>

00802469 <.L125>:
  802469:	8b 45 b4             	mov    -0x4c(%ebp),%eax
  80246c:	0f b7 40 02          	movzwl 0x2(%eax),%eax
  802470:	66 85 c0             	test   %ax,%ax
  802473:	0f 84 72 40 00 00    	je     8064eb <.L548+0x24>
  802479:	8b 45 b4             	mov    -0x4c(%ebp),%eax
  80247c:	0f b7 50 04          	movzwl 0x4(%eax),%edx
  802480:	8b 45 e0             	mov    -0x20(%ebp),%eax
  802483:	66 89 50 08          	mov    %dx,0x8(%eax)
  802487:	e9 5f 40 00 00       	jmp    8064eb <.L548+0x24>

0080248c <.L126>:
  80248c:	e8 3f f7 01 00       	call   821bd0 <PAL_MakeScene>
  802491:	83 ec 0c             	sub    $0xc,%esp
  802494:	6a 00                	push   $0x0
  802496:	e8 e7 bc 02 00       	call   82e182 <VIDEO_UpdateScreen>
  80249b:	83 c4 10             	add    $0x10,%esp
  80249e:	8b 45 b4             	mov    -0x4c(%ebp),%eax
  8024a1:	0f b7 40 02          	movzwl 0x2(%eax),%eax
  8024a5:	0f b7 c0             	movzwl %ax,%eax
  8024a8:	83 ec 0c             	sub    $0xc,%esp
  8024ab:	50                   	push   %eax
  8024ac:	e8 fd 9f 02 00       	call   82c4ae <PAL_BuyMenu>
  8024b1:	83 c4 10             	add    $0x10,%esp
  8024b4:	e9 8a 40 00 00       	jmp    806543 <.L548+0x7c>

008024b9 <.L127>:
  8024b9:	e8 12 f7 01 00       	call   821bd0 <PAL_MakeScene>
  8024be:	83 ec 0c             	sub    $0xc,%esp
  8024c1:	6a 00                	push   $0x0
  8024c3:	e8 ba bc 02 00       	call   82e182 <VIDEO_UpdateScreen>
  8024c8:	83 c4 10             	add    $0x10,%esp
  8024cb:	e8 0d a4 02 00       	call   82c8dd <PAL_SellMenu>
  8024d0:	e9 6e 40 00 00       	jmp    806543 <.L548+0x7c>

008024d5 <.L128>:
  8024d5:	8b 45 b4             	mov    -0x4c(%ebp),%eax
  8024d8:	0f b7 40 02          	movzwl 0x2(%eax),%eax
  8024dc:	66 85 c0             	test   %ax,%ax
  8024df:	0f 84 8a 01 00 00    	je     80266f <.L128+0x19a>
  8024e5:	c7 45 d8 00 00 00 00 	movl   $0x0,-0x28(%ebp)
  8024ec:	e9 60 01 00 00       	jmp    802651 <.L128+0x17c>
  8024f1:	c7 c2 c0 31 86 00    	mov    $0x8631c0,%edx
  8024f7:	8b 45 d8             	mov    -0x28(%ebp),%eax
  8024fa:	69 c0 cc 00 00 00    	imul   $0xcc,%eax,%eax
  802500:	01 d0                	add    %edx,%eax
  802502:	05 b4 00 00 00       	add    $0xb4,%eax
  802507:	0f b7 00             	movzwl (%eax),%eax
  80250a:	66 89 45 ca          	mov    %ax,-0x36(%ebp)
  80250e:	66 83 7d ca 00       	cmpw   $0x0,-0x36(%ebp)
  802513:	0f 84 33 01 00 00    	je     80264c <.L128+0x177>
  802519:	83 ec 08             	sub    $0x8,%esp
  80251c:	6a 09                	push   $0x9
  80251e:	6a 00                	push   $0x0
  802520:	e8 6a d3 00 00       	call   80f88f <RandomLong>
  802525:	83 c4 10             	add    $0x10,%esp
  802528:	89 c6                	mov    %eax,%esi
  80252a:	c7 c0 c8 bf 85 00    	mov    $0x85bfc8,%eax
  802530:	8b 08                	mov    (%eax),%ecx
  802532:	0f b7 55 ca          	movzwl -0x36(%ebp),%edx
  802536:	89 d0                	mov    %edx,%eax
  802538:	01 c0                	add    %eax,%eax
  80253a:	01 d0                	add    %edx,%eax
  80253c:	c1 e0 02             	shl    $0x2,%eax
  80253f:	01 c8                	add    %ecx,%eax
  802541:	05 8a 09 00 00       	add    $0x98a,%eax
  802546:	0f b7 00             	movzwl (%eax),%eax
  802549:	0f b7 c0             	movzwl %ax,%eax
  80254c:	39 c6                	cmp    %eax,%esi
  80254e:	0f 8c f9 00 00 00    	jl     80264d <.L128+0x178>
  802554:	c7 45 d4 00 00 00 00 	movl   $0x0,-0x2c(%ebp)
  80255b:	eb 29                	jmp    802586 <.L128+0xb1>
  80255d:	c7 c0 c0 31 86 00    	mov    $0x8631c0,%eax
  802563:	8b 55 d8             	mov    -0x28(%ebp),%edx
  802566:	6b ca 33             	imul   $0x33,%edx,%ecx
  802569:	8b 55 d4             	mov    -0x2c(%ebp),%edx
  80256c:	01 ca                	add    %ecx,%edx
  80256e:	83 c2 44             	add    $0x44,%edx
  802571:	0f b7 54 90 04       	movzwl 0x4(%eax,%edx,4),%edx
  802576:	8b 45 b4             	mov    -0x4c(%ebp),%eax
  802579:	0f b7 40 04          	movzwl 0x4(%eax),%eax
  80257d:	66 39 c2             	cmp    %ax,%dx
  802580:	74 0c                	je     80258e <.L128+0xb9>
  802582:	83 45 d4 01          	addl   $0x1,-0x2c(%ebp)
  802586:	83 7d d4 0f          	cmpl   $0xf,-0x2c(%ebp)
  80258a:	7e d1                	jle    80255d <.L128+0x88>
  80258c:	eb 01                	jmp    80258f <.L128+0xba>
  80258e:	90                   	nop
  80258f:	83 7d d4 0f          	cmpl   $0xf,-0x2c(%ebp)
  802593:	0f 8e b4 00 00 00    	jle    80264d <.L128+0x178>
  802599:	c7 45 d4 00 00 00 00 	movl   $0x0,-0x2c(%ebp)
  8025a0:	e9 9b 00 00 00       	jmp    802640 <.L128+0x16b>
  8025a5:	c7 c0 c0 31 86 00    	mov    $0x8631c0,%eax
  8025ab:	8b 55 d8             	mov    -0x28(%ebp),%edx
  8025ae:	6b ca 33             	imul   $0x33,%edx,%ecx
  8025b1:	8b 55 d4             	mov    -0x2c(%ebp),%edx
  8025b4:	01 ca                	add    %ecx,%edx
  8025b6:	83 c2 44             	add    $0x44,%edx
  8025b9:	0f b7 44 90 04       	movzwl 0x4(%eax,%edx,4),%eax
  8025be:	66 85 c0             	test   %ax,%ax
  8025c1:	75 79                	jne    80263c <.L128+0x167>
  8025c3:	8b 45 b4             	mov    -0x4c(%ebp),%eax
  8025c6:	0f b7 50 04          	movzwl 0x4(%eax),%edx
  8025ca:	c7 c0 c0 31 86 00    	mov    $0x8631c0,%eax
  8025d0:	8b 4d d8             	mov    -0x28(%ebp),%ecx
  8025d3:	6b f1 33             	imul   $0x33,%ecx,%esi
  8025d6:	8b 4d d4             	mov    -0x2c(%ebp),%ecx
  8025d9:	01 f1                	add    %esi,%ecx
  8025db:	83 c1 44             	add    $0x44,%ecx
  8025de:	66 89 54 88 04       	mov    %dx,0x4(%eax,%ecx,4)
  8025e3:	0f b7 8d 90 fe ff ff 	movzwl -0x170(%ebp),%ecx
  8025ea:	c7 c0 c8 bf 85 00    	mov    $0x85bfc8,%eax
  8025f0:	8b 30                	mov    (%eax),%esi
  8025f2:	8b 45 b4             	mov    -0x4c(%ebp),%eax
  8025f5:	0f b7 40 04          	movzwl 0x4(%eax),%eax
  8025f9:	0f b7 d0             	movzwl %ax,%edx
  8025fc:	89 d0                	mov    %edx,%eax
  8025fe:	01 c0                	add    %eax,%eax
  802600:	01 d0                	add    %edx,%eax
  802602:	c1 e0 02             	shl    $0x2,%eax
  802605:	01 f0                	add    %esi,%eax
  802607:	05 90 09 00 00       	add    $0x990,%eax
  80260c:	0f b7 00             	movzwl (%eax),%eax
  80260f:	0f b7 c0             	movzwl %ax,%eax
  802612:	83 ec 08             	sub    $0x8,%esp
  802615:	51                   	push   %ecx
  802616:	50                   	push   %eax
  802617:	e8 39 3f 00 00       	call   806555 <PAL_RunTriggerScript>
  80261c:	83 c4 10             	add    $0x10,%esp
  80261f:	89 c6                	mov    %eax,%esi
  802621:	c7 c0 c0 31 86 00    	mov    $0x8631c0,%eax
  802627:	8b 55 d8             	mov    -0x28(%ebp),%edx
  80262a:	6b ca 33             	imul   $0x33,%edx,%ecx
  80262d:	8b 55 d4             	mov    -0x2c(%ebp),%edx
  802630:	01 ca                	add    %ecx,%edx
  802632:	83 c2 44             	add    $0x44,%edx
  802635:	66 89 74 90 06       	mov    %si,0x6(%eax,%edx,4)
  80263a:	eb 11                	jmp    80264d <.L128+0x178>
  80263c:	83 45 d4 01          	addl   $0x1,-0x2c(%ebp)
  802640:	83 7d d4 0f          	cmpl   $0xf,-0x2c(%ebp)
  802644:	0f 8e 5b ff ff ff    	jle    8025a5 <.L128+0xd0>
  80264a:	eb 01                	jmp    80264d <.L128+0x178>
  80264c:	90                   	nop
  80264d:	83 45 d8 01          	addl   $0x1,-0x28(%ebp)
  802651:	c7 c0 c0 31 86 00    	mov    $0x8631c0,%eax
  802657:	0f b7 80 b0 04 00 00 	movzwl 0x4b0(%eax),%eax
  80265e:	0f b7 c0             	movzwl %ax,%eax
  802661:	3b 45 d8             	cmp    -0x28(%ebp),%eax
  802664:	0f 8d 87 fe ff ff    	jge    8024f1 <.L128+0x1c>
  80266a:	e9 7f 3e 00 00       	jmp    8064ee <.L548+0x27>
  80266f:	0f b7 85 90 fe ff ff 	movzwl -0x170(%ebp),%eax
  802676:	c7 c2 c0 31 86 00    	mov    $0x8631c0,%edx
  80267c:	69 c0 cc 00 00 00    	imul   $0xcc,%eax,%eax
  802682:	01 d0                	add    %edx,%eax
  802684:	05 b4 00 00 00       	add    $0xb4,%eax
  802689:	0f b7 00             	movzwl (%eax),%eax
  80268c:	66 89 45 ca          	mov    %ax,-0x36(%ebp)
  802690:	83 ec 08             	sub    $0x8,%esp
  802693:	6a 09                	push   $0x9
  802695:	6a 00                	push   $0x0
  802697:	e8 f3 d1 00 00       	call   80f88f <RandomLong>
  80269c:	83 c4 10             	add    $0x10,%esp
  80269f:	89 c6                	mov    %eax,%esi
  8026a1:	c7 c0 c8 bf 85 00    	mov    $0x85bfc8,%eax
  8026a7:	8b 08                	mov    (%eax),%ecx
  8026a9:	0f b7 55 ca          	movzwl -0x36(%ebp),%edx
  8026ad:	89 d0                	mov    %edx,%eax
  8026af:	01 c0                	add    %eax,%eax
  8026b1:	01 d0                	add    %edx,%eax
  8026b3:	c1 e0 02             	shl    $0x2,%eax
  8026b6:	01 c8                	add    %ecx,%eax
  8026b8:	05 8a 09 00 00       	add    $0x98a,%eax
  8026bd:	0f b7 00             	movzwl (%eax),%eax
  8026c0:	0f b7 c0             	movzwl %ax,%eax
  8026c3:	39 c6                	cmp    %eax,%esi
  8026c5:	0f 8c 23 3e 00 00    	jl     8064ee <.L548+0x27>
  8026cb:	c7 45 d4 00 00 00 00 	movl   $0x0,-0x2c(%ebp)
  8026d2:	eb 2d                	jmp    802701 <.L128+0x22c>
  8026d4:	0f b7 95 90 fe ff ff 	movzwl -0x170(%ebp),%edx
  8026db:	c7 c0 c0 31 86 00    	mov    $0x8631c0,%eax
  8026e1:	6b ca 33             	imul   $0x33,%edx,%ecx
  8026e4:	8b 55 d4             	mov    -0x2c(%ebp),%edx
  8026e7:	01 ca                	add    %ecx,%edx
  8026e9:	83 c2 44             	add    $0x44,%edx
  8026ec:	0f b7 54 90 04       	movzwl 0x4(%eax,%edx,4),%edx
  8026f1:	8b 45 b4             	mov    -0x4c(%ebp),%eax
  8026f4:	0f b7 40 04          	movzwl 0x4(%eax),%eax
  8026f8:	66 39 c2             	cmp    %ax,%dx
  8026fb:	74 0c                	je     802709 <.L128+0x234>
  8026fd:	83 45 d4 01          	addl   $0x1,-0x2c(%ebp)
  802701:	83 7d d4 0f          	cmpl   $0xf,-0x2c(%ebp)
  802705:	7e cd                	jle    8026d4 <.L128+0x1ff>
  802707:	eb 01                	jmp    80270a <.L128+0x235>
  802709:	90                   	nop
  80270a:	83 7d d4 0f          	cmpl   $0xf,-0x2c(%ebp)
  80270e:	0f 8e da 3d 00 00    	jle    8064ee <.L548+0x27>
  802714:	c7 45 d4 00 00 00 00 	movl   $0x0,-0x2c(%ebp)
  80271b:	e9 af 00 00 00       	jmp    8027cf <.L128+0x2fa>
  802720:	0f b7 95 90 fe ff ff 	movzwl -0x170(%ebp),%edx
  802727:	c7 c0 c0 31 86 00    	mov    $0x8631c0,%eax
  80272d:	6b ca 33             	imul   $0x33,%edx,%ecx
  802730:	8b 55 d4             	mov    -0x2c(%ebp),%edx
  802733:	01 ca                	add    %ecx,%edx
  802735:	83 c2 44             	add    $0x44,%edx
  802738:	0f b7 44 90 04       	movzwl 0x4(%eax,%edx,4),%eax
  80273d:	66 85 c0             	test   %ax,%ax
  802740:	0f 85 85 00 00 00    	jne    8027cb <.L128+0x2f6>
  802746:	0f b7 8d 90 fe ff ff 	movzwl -0x170(%ebp),%ecx
  80274d:	8b 45 b4             	mov    -0x4c(%ebp),%eax
  802750:	0f b7 50 04          	movzwl 0x4(%eax),%edx
  802754:	c7 c0 c0 31 86 00    	mov    $0x8631c0,%eax
  80275a:	6b f1 33             	imul   $0x33,%ecx,%esi
  80275d:	8b 4d d4             	mov    -0x2c(%ebp),%ecx
  802760:	01 f1                	add    %esi,%ecx
  802762:	83 c1 44             	add    $0x44,%ecx
  802765:	66 89 54 88 04       	mov    %dx,0x4(%eax,%ecx,4)
  80276a:	0f b7 b5 90 fe ff ff 	movzwl -0x170(%ebp),%esi
  802771:	0f b7 8d 90 fe ff ff 	movzwl -0x170(%ebp),%ecx
  802778:	c7 c0 c8 bf 85 00    	mov    $0x85bfc8,%eax
  80277e:	8b 38                	mov    (%eax),%edi
  802780:	8b 45 b4             	mov    -0x4c(%ebp),%eax
  802783:	0f b7 40 04          	movzwl 0x4(%eax),%eax
  802787:	0f b7 d0             	movzwl %ax,%edx
  80278a:	89 d0                	mov    %edx,%eax
  80278c:	01 c0                	add    %eax,%eax
  80278e:	01 d0                	add    %edx,%eax
  802790:	c1 e0 02             	shl    $0x2,%eax
  802793:	01 f8                	add    %edi,%eax
  802795:	05 90 09 00 00       	add    $0x990,%eax
  80279a:	0f b7 00             	movzwl (%eax),%eax
  80279d:	0f b7 c0             	movzwl %ax,%eax
  8027a0:	83 ec 08             	sub    $0x8,%esp
  8027a3:	51                   	push   %ecx
  8027a4:	50                   	push   %eax
  8027a5:	e8 ab 3d 00 00       	call   806555 <PAL_RunTriggerScript>
  8027aa:	83 c4 10             	add    $0x10,%esp
  8027ad:	89 c7                	mov    %eax,%edi
  8027af:	c7 c0 c0 31 86 00    	mov    $0x8631c0,%eax
  8027b5:	6b ce 33             	imul   $0x33,%esi,%ecx
  8027b8:	8b 55 d4             	mov    -0x2c(%ebp),%edx
  8027bb:	01 ca                	add    %ecx,%edx
  8027bd:	83 c2 44             	add    $0x44,%edx
  8027c0:	66 89 7c 90 06       	mov    %di,0x6(%eax,%edx,4)
  8027c5:	90                   	nop
  8027c6:	e9 23 3d 00 00       	jmp    8064ee <.L548+0x27>
  8027cb:	83 45 d4 01          	addl   $0x1,-0x2c(%ebp)
  8027cf:	83 7d d4 0f          	cmpl   $0xf,-0x2c(%ebp)
  8027d3:	0f 8e 47 ff ff ff    	jle    802720 <.L128+0x24b>
  8027d9:	e9 10 3d 00 00       	jmp    8064ee <.L548+0x27>

008027de <.L129>:
  8027de:	8b 45 b4             	mov    -0x4c(%ebp),%eax
  8027e1:	0f b7 40 02          	movzwl 0x2(%eax),%eax
  8027e5:	66 85 c0             	test   %ax,%ax
  8027e8:	0f 84 8e 00 00 00    	je     80287c <.L129+0x9e>
  8027ee:	c7 45 d8 00 00 00 00 	movl   $0x0,-0x28(%ebp)
  8027f5:	eb 69                	jmp    802860 <.L129+0x82>
  8027f7:	c7 c0 c8 bf 85 00    	mov    $0x85bfc8,%eax
  8027fd:	8b 08                	mov    (%eax),%ecx
  8027ff:	8b 55 d8             	mov    -0x28(%ebp),%edx
  802802:	89 d0                	mov    %edx,%eax
  802804:	c1 e0 02             	shl    $0x2,%eax
  802807:	01 d0                	add    %edx,%eax
  802809:	01 c0                	add    %eax,%eax
  80280b:	01 c8                	add    %ecx,%eax
  80280d:	05 f8 43 00 00       	add    $0x43f8,%eax
  802812:	0f b7 00             	movzwl (%eax),%eax
  802815:	66 89 45 ca          	mov    %ax,-0x36(%ebp)
  802819:	83 ec 08             	sub    $0x8,%esp
  80281c:	6a 64                	push   $0x64
  80281e:	6a 01                	push   $0x1
  802820:	e8 6a d0 00 00       	call   80f88f <RandomLong>
  802825:	83 c4 10             	add    $0x10,%esp
  802828:	89 c6                	mov    %eax,%esi
  80282a:	0f b7 45 ca          	movzwl -0x36(%ebp),%eax
  80282e:	83 ec 0c             	sub    $0xc,%esp
  802831:	50                   	push   %eax
  802832:	e8 bb 94 00 00       	call   80bcf2 <PAL_GetPlayerPoisonResistance>
  802837:	83 c4 10             	add    $0x10,%esp
  80283a:	0f b7 c0             	movzwl %ax,%eax
  80283d:	39 c6                	cmp    %eax,%esi
  80283f:	7e 1b                	jle    80285c <.L129+0x7e>
  802841:	8b 45 b4             	mov    -0x4c(%ebp),%eax
  802844:	0f b7 40 04          	movzwl 0x4(%eax),%eax
  802848:	0f b7 d0             	movzwl %ax,%edx
  80284b:	0f b7 45 ca          	movzwl -0x36(%ebp),%eax
  80284f:	83 ec 08             	sub    $0x8,%esp
  802852:	52                   	push   %edx
  802853:	50                   	push   %eax
  802854:	e8 26 8d 00 00       	call   80b57f <PAL_AddPoisonForPlayer>
  802859:	83 c4 10             	add    $0x10,%esp
  80285c:	83 45 d8 01          	addl   $0x1,-0x28(%ebp)
  802860:	c7 c0 c8 bf 85 00    	mov    $0x85bfc8,%eax
  802866:	8b 00                	mov    (%eax),%eax
  802868:	0f b7 80 f6 43 00 00 	movzwl 0x43f6(%eax),%eax
  80286f:	0f b7 c0             	movzwl %ax,%eax
  802872:	3b 45 d8             	cmp    -0x28(%ebp),%eax
  802875:	7d 80                	jge    8027f7 <.L129+0x19>
  802877:	e9 75 3c 00 00       	jmp    8064f1 <.L548+0x2a>
  80287c:	83 ec 08             	sub    $0x8,%esp
  80287f:	6a 64                	push   $0x64
  802881:	6a 01                	push   $0x1
  802883:	e8 07 d0 00 00       	call   80f88f <RandomLong>
  802888:	83 c4 10             	add    $0x10,%esp
  80288b:	89 c6                	mov    %eax,%esi
  80288d:	0f b7 85 90 fe ff ff 	movzwl -0x170(%ebp),%eax
  802894:	83 ec 0c             	sub    $0xc,%esp
  802897:	50                   	push   %eax
  802898:	e8 55 94 00 00       	call   80bcf2 <PAL_GetPlayerPoisonResistance>
  80289d:	83 c4 10             	add    $0x10,%esp
  8028a0:	0f b7 c0             	movzwl %ax,%eax
  8028a3:	39 c6                	cmp    %eax,%esi
  8028a5:	0f 8e 46 3c 00 00    	jle    8064f1 <.L548+0x2a>
  8028ab:	8b 45 b4             	mov    -0x4c(%ebp),%eax
  8028ae:	0f b7 40 04          	movzwl 0x4(%eax),%eax
  8028b2:	0f b7 d0             	movzwl %ax,%edx
  8028b5:	0f b7 85 90 fe ff ff 	movzwl -0x170(%ebp),%eax
  8028bc:	83 ec 08             	sub    $0x8,%esp
  8028bf:	52                   	push   %edx
  8028c0:	50                   	push   %eax
  8028c1:	e8 b9 8c 00 00       	call   80b57f <PAL_AddPoisonForPlayer>
  8028c6:	83 c4 10             	add    $0x10,%esp
  8028c9:	e9 23 3c 00 00       	jmp    8064f1 <.L548+0x2a>

008028ce <.L130>:
  8028ce:	8b 45 b4             	mov    -0x4c(%ebp),%eax
  8028d1:	0f b7 40 02          	movzwl 0x2(%eax),%eax
  8028d5:	66 85 c0             	test   %ax,%ax
  8028d8:	0f 84 bf 00 00 00    	je     80299d <.L130+0xcf>
  8028de:	c7 45 d8 00 00 00 00 	movl   $0x0,-0x28(%ebp)
  8028e5:	e9 95 00 00 00       	jmp    80297f <.L130+0xb1>
  8028ea:	c7 c2 c0 31 86 00    	mov    $0x8631c0,%edx
  8028f0:	8b 45 d8             	mov    -0x28(%ebp),%eax
  8028f3:	69 c0 cc 00 00 00    	imul   $0xcc,%eax,%eax
  8028f9:	01 d0                	add    %edx,%eax
  8028fb:	05 b4 00 00 00       	add    $0xb4,%eax
  802900:	0f b7 00             	movzwl (%eax),%eax
  802903:	66 85 c0             	test   %ax,%ax
  802906:	74 72                	je     80297a <.L130+0xac>
  802908:	c7 45 d4 00 00 00 00 	movl   $0x0,-0x2c(%ebp)
  80290f:	eb 61                	jmp    802972 <.L130+0xa4>
  802911:	c7 c0 c0 31 86 00    	mov    $0x8631c0,%eax
  802917:	8b 55 d8             	mov    -0x28(%ebp),%edx
  80291a:	6b ca 33             	imul   $0x33,%edx,%ecx
  80291d:	8b 55 d4             	mov    -0x2c(%ebp),%edx
  802920:	01 ca                	add    %ecx,%edx
  802922:	83 c2 44             	add    $0x44,%edx
  802925:	0f b7 54 90 04       	movzwl 0x4(%eax,%edx,4),%edx
  80292a:	8b 45 b4             	mov    -0x4c(%ebp),%eax
  80292d:	0f b7 40 04          	movzwl 0x4(%eax),%eax
  802931:	66 39 c2             	cmp    %ax,%dx
  802934:	75 38                	jne    80296e <.L130+0xa0>
  802936:	c7 c0 c0 31 86 00    	mov    $0x8631c0,%eax
  80293c:	8b 55 d8             	mov    -0x28(%ebp),%edx
  80293f:	6b ca 33             	imul   $0x33,%edx,%ecx
  802942:	8b 55 d4             	mov    -0x2c(%ebp),%edx
  802945:	01 ca                	add    %ecx,%edx
  802947:	83 c2 44             	add    $0x44,%edx
  80294a:	66 c7 44 90 04 00 00 	movw   $0x0,0x4(%eax,%edx,4)
  802951:	c7 c0 c0 31 86 00    	mov    $0x8631c0,%eax
  802957:	8b 55 d8             	mov    -0x28(%ebp),%edx
  80295a:	6b ca 33             	imul   $0x33,%edx,%ecx
  80295d:	8b 55 d4             	mov    -0x2c(%ebp),%edx
  802960:	01 ca                	add    %ecx,%edx
  802962:	83 c2 44             	add    $0x44,%edx
  802965:	66 c7 44 90 06 00 00 	movw   $0x0,0x6(%eax,%edx,4)
  80296c:	eb 0d                	jmp    80297b <.L130+0xad>
  80296e:	83 45 d4 01          	addl   $0x1,-0x2c(%ebp)
  802972:	83 7d d4 0f          	cmpl   $0xf,-0x2c(%ebp)
  802976:	7e 99                	jle    802911 <.L130+0x43>
  802978:	eb 01                	jmp    80297b <.L130+0xad>
  80297a:	90                   	nop
  80297b:	83 45 d8 01          	addl   $0x1,-0x28(%ebp)
  80297f:	c7 c0 c0 31 86 00    	mov    $0x8631c0,%eax
  802985:	0f b7 80 b0 04 00 00 	movzwl 0x4b0(%eax),%eax
  80298c:	0f b7 c0             	movzwl %ax,%eax
  80298f:	3b 45 d8             	cmp    -0x28(%ebp),%eax
  802992:	0f 8d 52 ff ff ff    	jge    8028ea <.L130+0x1c>
  802998:	e9 a6 3b 00 00       	jmp    806543 <.L548+0x7c>
  80299d:	c7 45 d4 00 00 00 00 	movl   $0x0,-0x2c(%ebp)
  8029a4:	eb 71                	jmp    802a17 <.L130+0x149>
  8029a6:	0f b7 95 90 fe ff ff 	movzwl -0x170(%ebp),%edx
  8029ad:	c7 c0 c0 31 86 00    	mov    $0x8631c0,%eax
  8029b3:	6b ca 33             	imul   $0x33,%edx,%ecx
  8029b6:	8b 55 d4             	mov    -0x2c(%ebp),%edx
  8029b9:	01 ca                	add    %ecx,%edx
  8029bb:	83 c2 44             	add    $0x44,%edx
  8029be:	0f b7 54 90 04       	movzwl 0x4(%eax,%edx,4),%edx
  8029c3:	8b 45 b4             	mov    -0x4c(%ebp),%eax
  8029c6:	0f b7 40 04          	movzwl 0x4(%eax),%eax
  8029ca:	66 39 c2             	cmp    %ax,%dx
  8029cd:	75 44                	jne    802a13 <.L130+0x145>
  8029cf:	0f b7 95 90 fe ff ff 	movzwl -0x170(%ebp),%edx
  8029d6:	c7 c0 c0 31 86 00    	mov    $0x8631c0,%eax
  8029dc:	6b ca 33             	imul   $0x33,%edx,%ecx
  8029df:	8b 55 d4             	mov    -0x2c(%ebp),%edx
  8029e2:	01 ca                	add    %ecx,%edx
  8029e4:	83 c2 44             	add    $0x44,%edx
  8029e7:	66 c7 44 90 04 00 00 	movw   $0x0,0x4(%eax,%edx,4)
  8029ee:	0f b7 95 90 fe ff ff 	movzwl -0x170(%ebp),%edx
  8029f5:	c7 c0 c0 31 86 00    	mov    $0x8631c0,%eax
  8029fb:	6b ca 33             	imul   $0x33,%edx,%ecx
  8029fe:	8b 55 d4             	mov    -0x2c(%ebp),%edx
  802a01:	01 ca                	add    %ecx,%edx
  802a03:	83 c2 44             	add    $0x44,%edx
  802a06:	66 c7 44 90 06 00 00 	movw   $0x0,0x6(%eax,%edx,4)
  802a0d:	90                   	nop
  802a0e:	e9 30 3b 00 00       	jmp    806543 <.L548+0x7c>
  802a13:	83 45 d4 01          	addl   $0x1,-0x2c(%ebp)
  802a17:	83 7d d4 0f          	cmpl   $0xf,-0x2c(%ebp)
  802a1b:	7e 89                	jle    8029a6 <.L130+0xd8>
  802a1d:	e9 21 3b 00 00       	jmp    806543 <.L548+0x7c>

00802a22 <.L131>:
  802a22:	8b 45 b4             	mov    -0x4c(%ebp),%eax
  802a25:	0f b7 40 02          	movzwl 0x2(%eax),%eax
  802a29:	66 85 c0             	test   %ax,%ax
  802a2c:	74 66                	je     802a94 <.L131+0x72>
  802a2e:	c7 45 d8 00 00 00 00 	movl   $0x0,-0x28(%ebp)
  802a35:	eb 41                	jmp    802a78 <.L131+0x56>
  802a37:	c7 c0 c8 bf 85 00    	mov    $0x85bfc8,%eax
  802a3d:	8b 08                	mov    (%eax),%ecx
  802a3f:	8b 55 d8             	mov    -0x28(%ebp),%edx
  802a42:	89 d0                	mov    %edx,%eax
  802a44:	c1 e0 02             	shl    $0x2,%eax
  802a47:	01 d0                	add    %edx,%eax
  802a49:	01 c0                	add    %eax,%eax
  802a4b:	01 c8                	add    %ecx,%eax
  802a4d:	05 f8 43 00 00       	add    $0x43f8,%eax
  802a52:	0f b7 00             	movzwl (%eax),%eax
  802a55:	66 89 45 ca          	mov    %ax,-0x36(%ebp)
  802a59:	8b 45 b4             	mov    -0x4c(%ebp),%eax
  802a5c:	0f b7 40 04          	movzwl 0x4(%eax),%eax
  802a60:	0f b7 d0             	movzwl %ax,%edx
  802a63:	0f b7 45 ca          	movzwl -0x36(%ebp),%eax
  802a67:	83 ec 08             	sub    $0x8,%esp
  802a6a:	52                   	push   %edx
  802a6b:	50                   	push   %eax
  802a6c:	e8 4b 8c 00 00       	call   80b6bc <PAL_CurePoisonByKind>
  802a71:	83 c4 10             	add    $0x10,%esp
  802a74:	83 45 d8 01          	addl   $0x1,-0x28(%ebp)
  802a78:	c7 c0 c8 bf 85 00    	mov    $0x85bfc8,%eax
  802a7e:	8b 00                	mov    (%eax),%eax
  802a80:	0f b7 80 f6 43 00 00 	movzwl 0x43f6(%eax),%eax
  802a87:	0f b7 c0             	movzwl %ax,%eax
  802a8a:	3b 45 d8             	cmp    -0x28(%ebp),%eax
  802a8d:	7d a8                	jge    802a37 <.L131+0x15>
  802a8f:	e9 af 3a 00 00       	jmp    806543 <.L548+0x7c>
  802a94:	8b 45 b4             	mov    -0x4c(%ebp),%eax
  802a97:	0f b7 40 04          	movzwl 0x4(%eax),%eax
  802a9b:	0f b7 d0             	movzwl %ax,%edx
  802a9e:	0f b7 85 90 fe ff ff 	movzwl -0x170(%ebp),%eax
  802aa5:	83 ec 08             	sub    $0x8,%esp
  802aa8:	52                   	push   %edx
  802aa9:	50                   	push   %eax
  802aaa:	e8 0d 8c 00 00       	call   80b6bc <PAL_CurePoisonByKind>
  802aaf:	83 c4 10             	add    $0x10,%esp
  802ab2:	e9 8c 3a 00 00       	jmp    806543 <.L548+0x7c>

00802ab7 <.L132>:
  802ab7:	8b 45 b4             	mov    -0x4c(%ebp),%eax
  802aba:	0f b7 40 02          	movzwl 0x2(%eax),%eax
  802abe:	66 85 c0             	test   %ax,%ax
  802ac1:	74 66                	je     802b29 <.L132+0x72>
  802ac3:	c7 45 d8 00 00 00 00 	movl   $0x0,-0x28(%ebp)
  802aca:	eb 41                	jmp    802b0d <.L132+0x56>
  802acc:	c7 c0 c8 bf 85 00    	mov    $0x85bfc8,%eax
  802ad2:	8b 08                	mov    (%eax),%ecx
  802ad4:	8b 55 d8             	mov    -0x28(%ebp),%edx
  802ad7:	89 d0                	mov    %edx,%eax
  802ad9:	c1 e0 02             	shl    $0x2,%eax
  802adc:	01 d0                	add    %edx,%eax
  802ade:	01 c0                	add    %eax,%eax
  802ae0:	01 c8                	add    %ecx,%eax
  802ae2:	05 f8 43 00 00       	add    $0x43f8,%eax
  802ae7:	0f b7 00             	movzwl (%eax),%eax
  802aea:	66 89 45 ca          	mov    %ax,-0x36(%ebp)
  802aee:	8b 45 b4             	mov    -0x4c(%ebp),%eax
  802af1:	0f b7 40 04          	movzwl 0x4(%eax),%eax
  802af5:	0f b7 d0             	movzwl %ax,%edx
  802af8:	0f b7 45 ca          	movzwl -0x36(%ebp),%eax
  802afc:	83 ec 08             	sub    $0x8,%esp
  802aff:	52                   	push   %edx
  802b00:	50                   	push   %eax
  802b01:	e8 b8 8c 00 00       	call   80b7be <PAL_CurePoisonByLevel>
  802b06:	83 c4 10             	add    $0x10,%esp
  802b09:	83 45 d8 01          	addl   $0x1,-0x28(%ebp)
  802b0d:	c7 c0 c8 bf 85 00    	mov    $0x85bfc8,%eax
  802b13:	8b 00                	mov    (%eax),%eax
  802b15:	0f b7 80 f6 43 00 00 	movzwl 0x43f6(%eax),%eax
  802b1c:	0f b7 c0             	movzwl %ax,%eax
  802b1f:	3b 45 d8             	cmp    -0x28(%ebp),%eax
  802b22:	7d a8                	jge    802acc <.L132+0x15>
  802b24:	e9 1a 3a 00 00       	jmp    806543 <.L548+0x7c>
  802b29:	8b 45 b4             	mov    -0x4c(%ebp),%eax
  802b2c:	0f b7 40 04          	movzwl 0x4(%eax),%eax
  802b30:	0f b7 d0             	movzwl %ax,%edx
  802b33:	0f b7 85 90 fe ff ff 	movzwl -0x170(%ebp),%eax
  802b3a:	83 ec 08             	sub    $0x8,%esp
  802b3d:	52                   	push   %edx
  802b3e:	50                   	push   %eax
  802b3f:	e8 7a 8c 00 00       	call   80b7be <PAL_CurePoisonByLevel>
  802b44:	83 c4 10             	add    $0x10,%esp
  802b47:	e9 f7 39 00 00       	jmp    806543 <.L548+0x7c>

00802b4c <.L133>:
  802b4c:	8b 45 b4             	mov    -0x4c(%ebp),%eax
  802b4f:	0f b7 40 04          	movzwl 0x4(%eax),%eax
  802b53:	0f b7 c8             	movzwl %ax,%ecx
  802b56:	8b 45 b4             	mov    -0x4c(%ebp),%eax
  802b59:	0f b7 40 02          	movzwl 0x2(%eax),%eax
  802b5d:	0f b7 d0             	movzwl %ax,%edx
  802b60:	0f b7 85 90 fe ff ff 	movzwl -0x170(%ebp),%eax
  802b67:	83 ec 04             	sub    $0x4,%esp
  802b6a:	51                   	push   %ecx
  802b6b:	52                   	push   %edx
  802b6c:	50                   	push   %eax
  802b6d:	e8 97 95 00 00       	call   80c109 <PAL_SetPlayerStatus>
  802b72:	83 c4 10             	add    $0x10,%esp
  802b75:	e9 c9 39 00 00       	jmp    806543 <.L548+0x7c>

00802b7a <.L134>:
  802b7a:	0f b7 85 90 fe ff ff 	movzwl -0x170(%ebp),%eax
  802b81:	c7 c2 c0 31 86 00    	mov    $0x8631c0,%edx
  802b87:	69 c0 cc 00 00 00    	imul   $0xcc,%eax,%eax
  802b8d:	01 d0                	add    %edx,%eax
  802b8f:	05 b4 00 00 00       	add    $0xb4,%eax
  802b94:	0f b7 00             	movzwl (%eax),%eax
  802b97:	66 89 45 ca          	mov    %ax,-0x36(%ebp)
  802b9b:	8b 45 b4             	mov    -0x4c(%ebp),%eax
  802b9e:	0f b7 40 02          	movzwl 0x2(%eax),%eax
  802ba2:	66 83 f8 01          	cmp    $0x1,%ax
  802ba6:	75 07                	jne    802baf <.L134+0x35>
  802ba8:	b8 0e 00 00 00       	mov    $0xe,%eax
  802bad:	eb 05                	jmp    802bb4 <.L134+0x3a>
  802baf:	b8 09 00 00 00       	mov    $0x9,%eax
  802bb4:	89 45 d8             	mov    %eax,-0x28(%ebp)
  802bb7:	83 ec 08             	sub    $0x8,%esp
  802bba:	ff 75 d8             	pushl  -0x28(%ebp)
  802bbd:	6a 00                	push   $0x0
  802bbf:	e8 cb cc 00 00       	call   80f88f <RandomLong>
  802bc4:	83 c4 10             	add    $0x10,%esp
  802bc7:	89 c6                	mov    %eax,%esi
  802bc9:	c7 c0 c8 bf 85 00    	mov    $0x85bfc8,%eax
  802bcf:	8b 08                	mov    (%eax),%ecx
  802bd1:	0f b7 55 ca          	movzwl -0x36(%ebp),%edx
  802bd5:	89 d0                	mov    %edx,%eax
  802bd7:	01 c0                	add    %eax,%eax
  802bd9:	01 d0                	add    %edx,%eax
  802bdb:	c1 e0 02             	shl    $0x2,%eax
  802bde:	01 c8                	add    %ecx,%eax
  802be0:	05 8a 09 00 00       	add    $0x98a,%eax
  802be5:	0f b7 00             	movzwl (%eax),%eax
  802be8:	0f b7 c0             	movzwl %ax,%eax
  802beb:	39 c6                	cmp    %eax,%esi
  802bed:	7c 59                	jl     802c48 <.L134+0xce>
  802bef:	0f b7 8d 90 fe ff ff 	movzwl -0x170(%ebp),%ecx
  802bf6:	8b 45 b4             	mov    -0x4c(%ebp),%eax
  802bf9:	0f b7 40 02          	movzwl 0x2(%eax),%eax
  802bfd:	0f b7 d0             	movzwl %ax,%edx
  802c00:	c7 c0 c0 31 86 00    	mov    $0x8631c0,%eax
  802c06:	6b c9 66             	imul   $0x66,%ecx,%ecx
  802c09:	01 ca                	add    %ecx,%edx
  802c0b:	83 c2 78             	add    $0x78,%edx
  802c0e:	0f b7 44 50 0c       	movzwl 0xc(%eax,%edx,2),%eax
  802c13:	66 85 c0             	test   %ax,%ax
  802c16:	75 30                	jne    802c48 <.L134+0xce>
  802c18:	0f b7 b5 90 fe ff ff 	movzwl -0x170(%ebp),%esi
  802c1f:	8b 45 b4             	mov    -0x4c(%ebp),%eax
  802c22:	0f b7 40 02          	movzwl 0x2(%eax),%eax
  802c26:	0f b7 c8             	movzwl %ax,%ecx
  802c29:	8b 45 b4             	mov    -0x4c(%ebp),%eax
  802c2c:	0f b7 50 04          	movzwl 0x4(%eax),%edx
  802c30:	c7 c0 c0 31 86 00    	mov    $0x8631c0,%eax
  802c36:	6b de 66             	imul   $0x66,%esi,%ebx
  802c39:	01 d9                	add    %ebx,%ecx
  802c3b:	83 c1 78             	add    $0x78,%ecx
  802c3e:	66 89 54 48 0c       	mov    %dx,0xc(%eax,%ecx,2)
  802c43:	e9 fb 38 00 00       	jmp    806543 <.L548+0x7c>
  802c48:	8b 45 b4             	mov    -0x4c(%ebp),%eax
  802c4b:	0f b7 40 06          	movzwl 0x6(%eax),%eax
  802c4f:	83 e8 01             	sub    $0x1,%eax
  802c52:	66 89 85 94 fe ff ff 	mov    %ax,-0x16c(%ebp)
  802c59:	e9 e5 38 00 00       	jmp    806543 <.L548+0x7c>

00802c5e <.L135>:
  802c5e:	8b 45 b4             	mov    -0x4c(%ebp),%eax
  802c61:	0f b7 40 02          	movzwl 0x2(%eax),%eax
  802c65:	0f b7 d0             	movzwl %ax,%edx
  802c68:	0f b7 85 90 fe ff ff 	movzwl -0x170(%ebp),%eax
  802c6f:	83 ec 08             	sub    $0x8,%esp
  802c72:	52                   	push   %edx
  802c73:	50                   	push   %eax
  802c74:	e8 e9 96 00 00       	call   80c362 <PAL_RemovePlayerStatus>
  802c79:	83 c4 10             	add    $0x10,%esp
  802c7c:	e9 c2 38 00 00       	jmp    806543 <.L548+0x7c>

00802c81 <.L136>:
  802c81:	c7 c0 c8 bf 85 00    	mov    $0x85bfc8,%eax
  802c87:	8b 00                	mov    (%eax),%eax
  802c89:	05 fc 3f 00 00       	add    $0x3ffc,%eax
  802c8e:	89 45 a8             	mov    %eax,-0x58(%ebp)
  802c91:	c7 c0 c8 bf 85 00    	mov    $0x85bfc8,%eax
  802c97:	8b 00                	mov    (%eax),%eax
  802c99:	05 c8 25 00 00       	add    $0x25c8,%eax
  802c9e:	89 45 a4             	mov    %eax,-0x5c(%ebp)
  802ca1:	8b 45 b4             	mov    -0x4c(%ebp),%eax
  802ca4:	0f b7 40 06          	movzwl 0x6(%eax),%eax
  802ca8:	66 85 c0             	test   %ax,%ax
  802cab:	75 0c                	jne    802cb9 <.L136+0x38>
  802cad:	0f b7 85 90 fe ff ff 	movzwl -0x170(%ebp),%eax
  802cb4:	89 45 dc             	mov    %eax,-0x24(%ebp)
  802cb7:	eb 10                	jmp    802cc9 <.L136+0x48>
  802cb9:	8b 45 b4             	mov    -0x4c(%ebp),%eax
  802cbc:	0f b7 40 06          	movzwl 0x6(%eax),%eax
  802cc0:	0f b7 c0             	movzwl %ax,%eax
  802cc3:	83 e8 01             	sub    $0x1,%eax
  802cc6:	89 45 dc             	mov    %eax,-0x24(%ebp)
  802cc9:	8b 45 b4             	mov    -0x4c(%ebp),%eax
  802ccc:	0f b7 40 02          	movzwl 0x2(%eax),%eax
  802cd0:	0f b7 d0             	movzwl %ax,%edx
  802cd3:	89 d0                	mov    %edx,%eax
  802cd5:	01 c0                	add    %eax,%eax
  802cd7:	01 d0                	add    %edx,%eax
  802cd9:	01 c0                	add    %eax,%eax
  802cdb:	89 c2                	mov    %eax,%edx
  802cdd:	8b 45 dc             	mov    -0x24(%ebp),%eax
  802ce0:	01 d0                	add    %edx,%eax
  802ce2:	8d 14 00             	lea    (%eax,%eax,1),%edx
  802ce5:	8b 45 a8             	mov    -0x58(%ebp),%eax
  802ce8:	8d 1c 02             	lea    (%edx,%eax,1),%ebx
  802ceb:	8b 45 b4             	mov    -0x4c(%ebp),%eax
  802cee:	0f b7 40 02          	movzwl 0x2(%eax),%eax
  802cf2:	0f b7 d0             	movzwl %ax,%edx
  802cf5:	89 d0                	mov    %edx,%eax
  802cf7:	01 c0                	add    %eax,%eax
  802cf9:	01 d0                	add    %edx,%eax
  802cfb:	01 c0                	add    %eax,%eax
  802cfd:	89 c2                	mov    %eax,%edx
  802cff:	8b 45 dc             	mov    -0x24(%ebp),%eax
  802d02:	01 d0                	add    %edx,%eax
  802d04:	8d 14 00             	lea    (%eax,%eax,1),%edx
  802d07:	8b 45 a4             	mov    -0x5c(%ebp),%eax
  802d0a:	01 d0                	add    %edx,%eax
  802d0c:	0f b7 00             	movzwl (%eax),%eax
  802d0f:	0f b7 d0             	movzwl %ax,%edx
  802d12:	8b 45 b4             	mov    -0x4c(%ebp),%eax
  802d15:	0f b7 40 04          	movzwl 0x4(%eax),%eax
  802d19:	98                   	cwtl   
  802d1a:	89 d1                	mov    %edx,%ecx
  802d1c:	0f af c8             	imul   %eax,%ecx
  802d1f:	ba 1f 85 eb 51       	mov    $0x51eb851f,%edx
  802d24:	89 c8                	mov    %ecx,%eax
  802d26:	f7 ea                	imul   %edx
  802d28:	c1 fa 05             	sar    $0x5,%edx
  802d2b:	89 c8                	mov    %ecx,%eax
  802d2d:	c1 f8 1f             	sar    $0x1f,%eax
  802d30:	29 c2                	sub    %eax,%edx
  802d32:	89 d0                	mov    %edx,%eax
  802d34:	66 89 03             	mov    %ax,(%ebx)
  802d37:	e9 07 38 00 00       	jmp    806543 <.L548+0x7c>

00802d3c <.L137>:
  802d3c:	c7 c0 c8 bf 85 00    	mov    $0x85bfc8,%eax
  802d42:	8b 00                	mov    (%eax),%eax
  802d44:	0f b7 8d 90 fe ff ff 	movzwl -0x170(%ebp),%ecx
  802d4b:	8b 55 b4             	mov    -0x4c(%ebp),%edx
  802d4e:	0f b7 52 02          	movzwl 0x2(%edx),%edx
  802d52:	81 c1 fc 1f 00 00    	add    $0x1ffc,%ecx
  802d58:	66 89 54 48 10       	mov    %dx,0x10(%eax,%ecx,2)
  802d5d:	e9 e1 37 00 00       	jmp    806543 <.L548+0x7c>

00802d62 <.L138>:
  802d62:	0f b7 85 90 fe ff ff 	movzwl -0x170(%ebp),%eax
  802d69:	c7 c2 c0 31 86 00    	mov    $0x8631c0,%edx
  802d6f:	69 c0 cc 00 00 00    	imul   $0xcc,%eax,%eax
  802d75:	01 d0                	add    %edx,%eax
  802d77:	05 fa 00 00 00       	add    $0xfa,%eax
  802d7c:	0f b7 00             	movzwl (%eax),%eax
  802d7f:	66 85 c0             	test   %ax,%ax
  802d82:	74 43                	je     802dc7 <.L138+0x65>
  802d84:	c7 c0 c8 bf 85 00    	mov    $0x85bfc8,%eax
  802d8a:	8b 00                	mov    (%eax),%eax
  802d8c:	c7 c2 c8 bf 85 00    	mov    $0x85bfc8,%edx
  802d92:	8b 12                	mov    (%edx),%edx
  802d94:	0f b7 8a 5a 44 00 00 	movzwl 0x445a(%edx),%ecx
  802d9b:	0f b7 95 90 fe ff ff 	movzwl -0x170(%ebp),%edx
  802da2:	c7 c3 c0 31 86 00    	mov    $0x8631c0,%ebx
  802da8:	69 d2 cc 00 00 00    	imul   $0xcc,%edx,%edx
  802dae:	01 da                	add    %ebx,%edx
  802db0:	81 c2 fa 00 00 00    	add    $0xfa,%edx
  802db6:	0f b7 12             	movzwl (%edx),%edx
  802db9:	01 ca                	add    %ecx,%edx
  802dbb:	66 89 90 5a 44 00 00 	mov    %dx,0x445a(%eax)
  802dc2:	e9 7c 37 00 00       	jmp    806543 <.L548+0x7c>
  802dc7:	8b 45 b4             	mov    -0x4c(%ebp),%eax
  802dca:	0f b7 40 02          	movzwl 0x2(%eax),%eax
  802dce:	83 e8 01             	sub    $0x1,%eax
  802dd1:	66 89 85 94 fe ff ff 	mov    %ax,-0x16c(%ebp)
  802dd8:	e9 66 37 00 00       	jmp    806543 <.L548+0x7c>

00802ddd <.L139>:
  802ddd:	c7 c0 c8 bf 85 00    	mov    $0x85bfc8,%eax
  802de3:	8b 00                	mov    (%eax),%eax
  802de5:	0f b7 80 5a 44 00 00 	movzwl 0x445a(%eax),%eax
  802dec:	66 85 c0             	test   %ax,%ax
  802def:	0f 84 09 01 00 00    	je     802efe <.L139+0x121>
  802df5:	83 ec 08             	sub    $0x8,%esp
  802df8:	6a 09                	push   $0x9
  802dfa:	6a 01                	push   $0x1
  802dfc:	e8 8e ca 00 00       	call   80f88f <RandomLong>
  802e01:	83 c4 10             	add    $0x10,%esp
  802e04:	89 45 d8             	mov    %eax,-0x28(%ebp)
  802e07:	c7 c0 c8 bf 85 00    	mov    $0x85bfc8,%eax
  802e0d:	8b 00                	mov    (%eax),%eax
  802e0f:	0f b7 80 5a 44 00 00 	movzwl 0x445a(%eax),%eax
  802e16:	0f b7 c0             	movzwl %ax,%eax
  802e19:	3b 45 d8             	cmp    -0x28(%ebp),%eax
  802e1c:	7d 15                	jge    802e33 <.L139+0x56>
  802e1e:	c7 c0 c8 bf 85 00    	mov    $0x85bfc8,%eax
  802e24:	8b 00                	mov    (%eax),%eax
  802e26:	0f b7 80 5a 44 00 00 	movzwl 0x445a(%eax),%eax
  802e2d:	0f b7 c0             	movzwl %ax,%eax
  802e30:	89 45 d8             	mov    %eax,-0x28(%ebp)
  802e33:	c7 c0 c8 bf 85 00    	mov    $0x85bfc8,%eax
  802e39:	8b 00                	mov    (%eax),%eax
  802e3b:	c7 c2 c8 bf 85 00    	mov    $0x85bfc8,%edx
  802e41:	8b 12                	mov    (%edx),%edx
  802e43:	0f b7 92 5a 44 00 00 	movzwl 0x445a(%edx),%edx
  802e4a:	8b 4d d8             	mov    -0x28(%ebp),%ecx
  802e4d:	29 ca                	sub    %ecx,%edx
  802e4f:	66 89 90 5a 44 00 00 	mov    %dx,0x445a(%eax)
  802e56:	83 6d d8 01          	subl   $0x1,-0x28(%ebp)
  802e5a:	c7 c0 c8 bf 85 00    	mov    $0x85bfc8,%eax
  802e60:	8b 00                	mov    (%eax),%eax
  802e62:	8b 80 b0 25 00 00    	mov    0x25b0(%eax),%eax
  802e68:	8b 55 d8             	mov    -0x28(%ebp),%edx
  802e6b:	0f b7 04 50          	movzwl (%eax,%edx,2),%eax
  802e6f:	0f b7 c0             	movzwl %ax,%eax
  802e72:	83 ec 08             	sub    $0x8,%esp
  802e75:	6a 01                	push   $0x1
  802e77:	50                   	push   %eax
  802e78:	e8 11 7e 00 00       	call   80ac8e <PAL_AddItemToInventory>
  802e7d:	83 c4 10             	add    $0x10,%esp
  802e80:	6a 00                	push   $0x0
  802e82:	6a 00                	push   $0x0
  802e84:	6a 00                	push   $0x0
  802e86:	6a 03                	push   $0x3
  802e88:	e8 a0 61 02 00       	call   82902d <PAL_StartDialog>
  802e8d:	83 c4 10             	add    $0x10,%esp
  802e90:	83 ec 0c             	sub    $0xc,%esp
  802e93:	6a 2a                	push   $0x2a
  802e95:	e8 69 5d 02 00       	call   828c03 <PAL_GetWord>
  802e9a:	83 c4 10             	add    $0x10,%esp
  802e9d:	83 ec 08             	sub    $0x8,%esp
  802ea0:	50                   	push   %eax
  802ea1:	8d 85 9c fe ff ff    	lea    -0x164(%ebp),%eax
  802ea7:	50                   	push   %eax
  802ea8:	e8 e3 fd 02 00       	call   832c90 <strcpy>
  802ead:	83 c4 10             	add    $0x10,%esp
  802eb0:	c7 c0 c8 bf 85 00    	mov    $0x85bfc8,%eax
  802eb6:	8b 00                	mov    (%eax),%eax
  802eb8:	8b 80 b0 25 00 00    	mov    0x25b0(%eax),%eax
  802ebe:	8b 55 d8             	mov    -0x28(%ebp),%edx
  802ec1:	0f b7 04 50          	movzwl (%eax,%edx,2),%eax
  802ec5:	0f b7 c0             	movzwl %ax,%eax
  802ec8:	83 ec 0c             	sub    $0xc,%esp
  802ecb:	50                   	push   %eax
  802ecc:	e8 32 5d 02 00       	call   828c03 <PAL_GetWord>
  802ed1:	83 c4 10             	add    $0x10,%esp
  802ed4:	83 ec 08             	sub    $0x8,%esp
  802ed7:	50                   	push   %eax
  802ed8:	8d 85 9c fe ff ff    	lea    -0x164(%ebp),%eax
  802ede:	50                   	push   %eax
  802edf:	e8 3c fc 02 00       	call   832b20 <strcat>
  802ee4:	83 c4 10             	add    $0x10,%esp
  802ee7:	83 ec 0c             	sub    $0xc,%esp
  802eea:	8d 85 9c fe ff ff    	lea    -0x164(%ebp),%eax
  802ef0:	50                   	push   %eax
  802ef1:	e8 9b 66 02 00       	call   829591 <PAL_ShowDialogText>
  802ef6:	83 c4 10             	add    $0x10,%esp
  802ef9:	e9 45 36 00 00       	jmp    806543 <.L548+0x7c>
  802efe:	8b 45 b4             	mov    -0x4c(%ebp),%eax
  802f01:	0f b7 40 02          	movzwl 0x2(%eax),%eax
  802f05:	83 e8 01             	sub    $0x1,%eax
  802f08:	66 89 85 94 fe ff ff 	mov    %ax,-0x16c(%ebp)
  802f0f:	e9 2f 36 00 00       	jmp    806543 <.L548+0x7c>

00802f14 <.L140>:
  802f14:	8b 45 b4             	mov    -0x4c(%ebp),%eax
  802f17:	0f b7 40 04          	movzwl 0x4(%eax),%eax
  802f1b:	0f b7 c0             	movzwl %ax,%eax
  802f1e:	89 45 d8             	mov    %eax,-0x28(%ebp)
  802f21:	83 7d d8 00          	cmpl   $0x0,-0x28(%ebp)
  802f25:	75 07                	jne    802f2e <.L140+0x1a>
  802f27:	c7 45 d8 04 00 00 00 	movl   $0x4,-0x28(%ebp)
  802f2e:	8b 45 d8             	mov    -0x28(%ebp),%eax
  802f31:	0f b7 d0             	movzwl %ax,%edx
  802f34:	8b 45 b4             	mov    -0x4c(%ebp),%eax
  802f37:	0f b7 40 02          	movzwl 0x2(%eax),%eax
  802f3b:	0f b7 c0             	movzwl %ax,%eax
  802f3e:	83 ec 08             	sub    $0x8,%esp
  802f41:	52                   	push   %edx
  802f42:	50                   	push   %eax
  802f43:	e8 66 b9 02 00       	call   82e8ae <VIDEO_ShakeScreen>
  802f48:	83 c4 10             	add    $0x10,%esp
  802f4b:	8b 45 b4             	mov    -0x4c(%ebp),%eax
  802f4e:	0f b7 40 02          	movzwl 0x2(%eax),%eax
  802f52:	66 85 c0             	test   %ax,%ax
  802f55:	0f 85 99 35 00 00    	jne    8064f4 <.L548+0x2d>
  802f5b:	83 ec 0c             	sub    $0xc,%esp
  802f5e:	6a 00                	push   $0x0
  802f60:	e8 1d b2 02 00       	call   82e182 <VIDEO_UpdateScreen>
  802f65:	83 c4 10             	add    $0x10,%esp
  802f68:	e9 87 35 00 00       	jmp    8064f4 <.L548+0x2d>

00802f6d <.L141>:
  802f6d:	c7 c0 c8 bf 85 00    	mov    $0x85bfc8,%eax
  802f73:	8b 00                	mov    (%eax),%eax
  802f75:	8b 55 b4             	mov    -0x4c(%ebp),%edx
  802f78:	0f b7 52 02          	movzwl 0x2(%edx),%edx
  802f7c:	0f b7 d2             	movzwl %dx,%edx
  802f7f:	89 90 c8 2a 00 00    	mov    %edx,0x2ac8(%eax)
  802f85:	e9 b9 35 00 00       	jmp    806543 <.L548+0x7c>

00802f8a <.L142>:
  802f8a:	8b 45 b4             	mov    -0x4c(%ebp),%eax
  802f8d:	0f b7 40 06          	movzwl 0x6(%eax),%eax
  802f91:	66 85 c0             	test   %ax,%ax
  802f94:	74 0c                	je     802fa2 <.L142+0x18>
  802f96:	8b 45 b4             	mov    -0x4c(%ebp),%eax
  802f99:	0f b7 40 06          	movzwl 0x6(%eax),%eax
  802f9d:	0f b7 d0             	movzwl %ax,%edx
  802fa0:	eb 05                	jmp    802fa7 <.L142+0x1d>
  802fa2:	ba 10 00 00 00       	mov    $0x10,%edx
  802fa7:	8b 45 b4             	mov    -0x4c(%ebp),%eax
  802faa:	0f b7 40 04          	movzwl 0x4(%eax),%eax
  802fae:	66 85 c0             	test   %ax,%ax
  802fb1:	74 0c                	je     802fbf <.L142+0x35>
  802fb3:	8b 45 b4             	mov    -0x4c(%ebp),%eax
  802fb6:	0f b7 40 04          	movzwl 0x4(%eax),%eax
  802fba:	0f b7 c0             	movzwl %ax,%eax
  802fbd:	eb 05                	jmp    802fc4 <.L142+0x3a>
  802fbf:	b8 e7 03 00 00       	mov    $0x3e7,%eax
  802fc4:	8b 4d b4             	mov    -0x4c(%ebp),%ecx
  802fc7:	0f b7 49 02          	movzwl 0x2(%ecx),%ecx
  802fcb:	0f b7 f1             	movzwl %cx,%esi
  802fce:	c7 c1 c8 bf 85 00    	mov    $0x85bfc8,%ecx
  802fd4:	8b 09                	mov    (%ecx),%ecx
  802fd6:	8b 89 c8 2a 00 00    	mov    0x2ac8(%ecx),%ecx
  802fdc:	52                   	push   %edx
  802fdd:	50                   	push   %eax
  802fde:	56                   	push   %esi
  802fdf:	51                   	push   %ecx
  802fe0:	e8 0f c6 00 00       	call   80f5f4 <PAL_RNGPlay>
  802fe5:	83 c4 10             	add    $0x10,%esp
  802fe8:	e9 56 35 00 00       	jmp    806543 <.L548+0x7c>

00802fed <.L143>:
  802fed:	c7 c0 c8 bf 85 00    	mov    $0x85bfc8,%eax
  802ff3:	8b 00                	mov    (%eax),%eax
  802ff5:	8b 80 d8 2a 00 00    	mov    0x2ad8(%eax),%eax
  802ffb:	85 c0                	test   %eax,%eax
  802ffd:	0f 85 8f 00 00 00    	jne    803092 <.L143+0xa5>
  803003:	c7 c0 c8 bf 85 00    	mov    $0x85bfc8,%eax
  803009:	8b 00                	mov    (%eax),%eax
  80300b:	c7 c2 c8 bf 85 00    	mov    $0x85bfc8,%edx
  803011:	8b 12                	mov    (%edx),%edx
  803013:	0f b7 92 4a 44 00 00 	movzwl 0x444a(%edx),%edx
  80301a:	0f b7 d2             	movzwl %dx,%edx
  80301d:	83 ea 01             	sub    $0x1,%edx
  803020:	83 c2 04             	add    $0x4,%edx
  803023:	0f b7 44 d0 0c       	movzwl 0xc(%eax,%edx,8),%eax
  803028:	66 85 c0             	test   %ax,%ax
  80302b:	74 65                	je     803092 <.L143+0xa5>
  80302d:	c7 c0 c8 bf 85 00    	mov    $0x85bfc8,%eax
  803033:	8b 30                	mov    (%eax),%esi
  803035:	c7 c0 c8 bf 85 00    	mov    $0x85bfc8,%eax
  80303b:	8b 00                	mov    (%eax),%eax
  80303d:	0f b7 80 4a 44 00 00 	movzwl 0x444a(%eax),%eax
  803044:	0f b7 c0             	movzwl %ax,%eax
  803047:	8d 78 ff             	lea    -0x1(%eax),%edi
  80304a:	c7 c0 c8 bf 85 00    	mov    $0x85bfc8,%eax
  803050:	8b 00                	mov    (%eax),%eax
  803052:	c7 c2 c8 bf 85 00    	mov    $0x85bfc8,%edx
  803058:	8b 12                	mov    (%edx),%edx
  80305a:	0f b7 92 4a 44 00 00 	movzwl 0x444a(%edx),%edx
  803061:	0f b7 d2             	movzwl %dx,%edx
  803064:	83 ea 01             	sub    $0x1,%edx
  803067:	83 c2 04             	add    $0x4,%edx
  80306a:	0f b7 44 d0 0c       	movzwl 0xc(%eax,%edx,8),%eax
  80306f:	0f b7 c0             	movzwl %ax,%eax
  803072:	83 ec 08             	sub    $0x8,%esp
  803075:	68 ff ff 00 00       	push   $0xffff
  80307a:	50                   	push   %eax
  80307b:	e8 d5 34 00 00       	call   806555 <PAL_RunTriggerScript>
  803080:	83 c4 10             	add    $0x10,%esp
  803083:	89 c2                	mov    %eax,%edx
  803085:	8d 47 04             	lea    0x4(%edi),%eax
  803088:	66 89 54 c6 0c       	mov    %dx,0xc(%esi,%eax,8)
  80308d:	e9 b1 34 00 00       	jmp    806543 <.L548+0x7c>
  803092:	c7 83 24 04 00 00 00 	movl   $0x0,0x424(%ebx)
  803099:	00 00 00 
  80309c:	8b 45 b4             	mov    -0x4c(%ebp),%eax
  80309f:	0f b7 40 02          	movzwl 0x2(%eax),%eax
  8030a3:	83 e8 01             	sub    $0x1,%eax
  8030a6:	66 89 85 94 fe ff ff 	mov    %ax,-0x16c(%ebp)
  8030ad:	e9 91 34 00 00       	jmp    806543 <.L548+0x7c>

008030b2 <.L144>:
  8030b2:	c7 c0 c8 bf 85 00    	mov    $0x85bfc8,%eax
  8030b8:	8b 08                	mov    (%eax),%ecx
  8030ba:	c7 c0 c0 31 86 00    	mov    $0x8631c0,%eax
  8030c0:	0f b7 80 10 08 00 00 	movzwl 0x810(%eax),%eax
  8030c7:	0f b7 d0             	movzwl %ax,%edx
  8030ca:	89 d0                	mov    %edx,%eax
  8030cc:	c1 e0 02             	shl    $0x2,%eax
  8030cf:	01 d0                	add    %edx,%eax
  8030d1:	01 c0                	add    %eax,%eax
  8030d3:	01 c8                	add    %ecx,%eax
  8030d5:	05 f8 43 00 00       	add    $0x43f8,%eax
  8030da:	0f b7 00             	movzwl (%eax),%eax
  8030dd:	66 89 45 ca          	mov    %ax,-0x36(%ebp)
  8030e1:	0f b7 b5 90 fe ff ff 	movzwl -0x170(%ebp),%esi
  8030e8:	0f b7 85 90 fe ff ff 	movzwl -0x170(%ebp),%eax
  8030ef:	c7 c2 c0 31 86 00    	mov    $0x8631c0,%edx
  8030f5:	69 c0 cc 00 00 00    	imul   $0xcc,%eax,%eax
  8030fb:	01 d0                	add    %edx,%eax
  8030fd:	05 cc 00 00 00       	add    $0xcc,%eax
  803102:	0f b7 10             	movzwl (%eax),%edx
  803105:	8b 45 b4             	mov    -0x4c(%ebp),%eax
  803108:	0f b7 40 02          	movzwl 0x2(%eax),%eax
  80310c:	29 c2                	sub    %eax,%edx
  80310e:	c7 c1 c0 31 86 00    	mov    $0x8631c0,%ecx
  803114:	69 c6 cc 00 00 00    	imul   $0xcc,%esi,%eax
  80311a:	01 c8                	add    %ecx,%eax
  80311c:	05 cc 00 00 00       	add    $0xcc,%eax
  803121:	66 89 10             	mov    %dx,(%eax)
  803124:	c7 c0 c8 bf 85 00    	mov    $0x85bfc8,%eax
  80312a:	8b 00                	mov    (%eax),%eax
  80312c:	0f b7 75 ca          	movzwl -0x36(%ebp),%esi
  803130:	c7 c2 c8 bf 85 00    	mov    $0x85bfc8,%edx
  803136:	8b 12                	mov    (%edx),%edx
  803138:	0f b7 4d ca          	movzwl -0x36(%ebp),%ecx
  80313c:	81 c1 10 13 00 00    	add    $0x1310,%ecx
  803142:	0f b7 4c 4a 14       	movzwl 0x14(%edx,%ecx,2),%ecx
  803147:	8b 55 b4             	mov    -0x4c(%ebp),%edx
  80314a:	0f b7 52 02          	movzwl 0x2(%edx),%edx
  80314e:	01 d1                	add    %edx,%ecx
  803150:	8d 96 10 13 00 00    	lea    0x1310(%esi),%edx
  803156:	66 89 4c 50 14       	mov    %cx,0x14(%eax,%edx,2)
  80315b:	c7 c0 c8 bf 85 00    	mov    $0x85bfc8,%eax
  803161:	8b 00                	mov    (%eax),%eax
  803163:	0f b7 55 ca          	movzwl -0x36(%ebp),%edx
  803167:	81 c2 10 13 00 00    	add    $0x1310,%edx
  80316d:	0f b7 54 50 14       	movzwl 0x14(%eax,%edx,2),%edx
  803172:	c7 c0 c8 bf 85 00    	mov    $0x85bfc8,%eax
  803178:	8b 00                	mov    (%eax),%eax
  80317a:	0f b7 4d ca          	movzwl -0x36(%ebp),%ecx
  80317e:	81 c1 08 13 00 00    	add    $0x1308,%ecx
  803184:	0f b7 44 48 0c       	movzwl 0xc(%eax,%ecx,2),%eax
  803189:	66 39 c2             	cmp    %ax,%dx
  80318c:	0f 86 65 33 00 00    	jbe    8064f7 <.L548+0x30>
  803192:	c7 c0 c8 bf 85 00    	mov    $0x85bfc8,%eax
  803198:	8b 00                	mov    (%eax),%eax
  80319a:	0f b7 4d ca          	movzwl -0x36(%ebp),%ecx
  80319e:	c7 c2 c8 bf 85 00    	mov    $0x85bfc8,%edx
  8031a4:	8b 12                	mov    (%edx),%edx
  8031a6:	0f b7 5d ca          	movzwl -0x36(%ebp),%ebx
  8031aa:	81 c3 08 13 00 00    	add    $0x1308,%ebx
  8031b0:	0f b7 54 5a 0c       	movzwl 0xc(%edx,%ebx,2),%edx
  8031b5:	81 c1 10 13 00 00    	add    $0x1310,%ecx
  8031bb:	66 89 54 48 14       	mov    %dx,0x14(%eax,%ecx,2)
  8031c0:	e9 32 33 00 00       	jmp    8064f7 <.L548+0x30>

008031c5 <.L145>:
  8031c5:	c7 c0 c0 31 86 00    	mov    $0x8631c0,%eax
  8031cb:	8b 80 d4 04 00 00    	mov    0x4d4(%eax),%eax
  8031d1:	85 c0                	test   %eax,%eax
  8031d3:	74 16                	je     8031eb <.L145+0x26>
  8031d5:	8b 45 b4             	mov    -0x4c(%ebp),%eax
  8031d8:	0f b7 40 02          	movzwl 0x2(%eax),%eax
  8031dc:	83 e8 01             	sub    $0x1,%eax
  8031df:	66 89 85 94 fe ff ff 	mov    %ax,-0x16c(%ebp)
  8031e6:	e9 58 33 00 00       	jmp    806543 <.L548+0x7c>
  8031eb:	e8 c1 14 01 00       	call   8146b1 <PAL_BattlePlayerEscape>
  8031f0:	e9 4e 33 00 00       	jmp    806543 <.L548+0x7c>

008031f5 <.L146>:
  8031f5:	8b 45 b4             	mov    -0x4c(%ebp),%eax
  8031f8:	0f b7 40 06          	movzwl 0x6(%eax),%eax
  8031fc:	0f b7 d8             	movzwl %ax,%ebx
  8031ff:	8b 45 b4             	mov    -0x4c(%ebp),%eax
  803202:	0f b7 40 04          	movzwl 0x4(%eax),%eax
  803206:	0f b7 c8             	movzwl %ax,%ecx
  803209:	8b 45 b4             	mov    -0x4c(%ebp),%eax
  80320c:	0f b7 40 02          	movzwl 0x2(%eax),%eax
  803210:	0f b7 d0             	movzwl %ax,%edx
  803213:	0f b7 85 90 fe ff ff 	movzwl -0x170(%ebp),%eax
  80321a:	83 ec 0c             	sub    $0xc,%esp
  80321d:	6a 02                	push   $0x2
  80321f:	53                   	push   %ebx
  803220:	51                   	push   %ecx
  803221:	52                   	push   %edx
  803222:	50                   	push   %eax
  803223:	e8 53 da ff ff       	call   800c7b <PAL_PartyRideEventObject>
  803228:	83 c4 20             	add    $0x20,%esp
  80322b:	e9 13 33 00 00       	jmp    806543 <.L548+0x7c>

00803230 <.L147>:
  803230:	8b 45 b4             	mov    -0x4c(%ebp),%eax
  803233:	0f b7 40 02          	movzwl 0x2(%eax),%eax
  803237:	66 85 c0             	test   %ax,%ax
  80323a:	0f 84 ba 32 00 00    	je     8064fa <.L548+0x33>
  803240:	8b 45 b4             	mov    -0x4c(%ebp),%eax
  803243:	0f b7 50 04          	movzwl 0x4(%eax),%edx
  803247:	8b 45 e0             	mov    -0x20(%ebp),%eax
  80324a:	66 89 50 0e          	mov    %dx,0xe(%eax)
  80324e:	e9 a7 32 00 00       	jmp    8064fa <.L548+0x33>

00803253 <.L148>:
  803253:	c7 83 24 04 00 00 00 	movl   $0x0,0x424(%ebx)
  80325a:	00 00 00 
  80325d:	e9 e1 32 00 00       	jmp    806543 <.L548+0x7c>

00803262 <.L149>:
  803262:	8b 45 b4             	mov    -0x4c(%ebp),%eax
  803265:	0f b7 40 06          	movzwl 0x6(%eax),%eax
  803269:	98                   	cwtl   
  80326a:	83 e8 01             	sub    $0x1,%eax
  80326d:	89 45 d8             	mov    %eax,-0x28(%ebp)
  803270:	83 7d d8 00          	cmpl   $0x0,-0x28(%ebp)
  803274:	79 0a                	jns    803280 <.L149+0x1e>
  803276:	0f b7 85 90 fe ff ff 	movzwl -0x170(%ebp),%eax
  80327d:	89 45 d8             	mov    %eax,-0x28(%ebp)
  803280:	8b 45 b4             	mov    -0x4c(%ebp),%eax
  803283:	0f b7 40 04          	movzwl 0x4(%eax),%eax
  803287:	0f b7 c8             	movzwl %ax,%ecx
  80328a:	8b 45 b4             	mov    -0x4c(%ebp),%eax
  80328d:	0f b7 40 02          	movzwl 0x2(%eax),%eax
  803291:	0f b7 d0             	movzwl %ax,%edx
  803294:	8b 45 d8             	mov    -0x28(%ebp),%eax
  803297:	98                   	cwtl   
  803298:	83 ec 04             	sub    $0x4,%esp
  80329b:	51                   	push   %ecx
  80329c:	52                   	push   %edx
  80329d:	50                   	push   %eax
  80329e:	e8 53 d8 01 00       	call   820af6 <PAL_BattleSimulateMagic>
  8032a3:	83 c4 10             	add    $0x10,%esp
  8032a6:	e9 98 32 00 00       	jmp    806543 <.L548+0x7c>

008032ab <.L150>:
  8032ab:	c7 c0 c8 bf 85 00    	mov    $0x85bfc8,%eax
  8032b1:	8b 00                	mov    (%eax),%eax
  8032b3:	8b 55 b4             	mov    -0x4c(%ebp),%edx
  8032b6:	0f b7 52 02          	movzwl 0x2(%edx),%edx
  8032ba:	66 89 90 54 44 00 00 	mov    %dx,0x4454(%eax)
  8032c1:	8b 45 b4             	mov    -0x4c(%ebp),%eax
  8032c4:	0f b7 40 04          	movzwl 0x4(%eax),%eax
  8032c8:	0f b7 c0             	movzwl %ax,%eax
  8032cb:	89 85 8c fe ff ff    	mov    %eax,-0x174(%ebp)
  8032d1:	db 85 8c fe ff ff    	fildl  -0x174(%ebp)
  8032d7:	8b 45 b4             	mov    -0x4c(%ebp),%eax
  8032da:	0f b7 40 02          	movzwl 0x2(%eax),%eax
  8032de:	66 83 f8 3d          	cmp    $0x3d,%ax
  8032e2:	0f 95 c0             	setne  %al
  8032e5:	0f b6 d0             	movzbl %al,%edx
  8032e8:	8b 45 b4             	mov    -0x4c(%ebp),%eax
  8032eb:	0f b7 40 02          	movzwl 0x2(%eax),%eax
  8032ef:	0f b7 c0             	movzwl %ax,%eax
  8032f2:	83 ec 04             	sub    $0x4,%esp
  8032f5:	8d 64 24 fc          	lea    -0x4(%esp),%esp
  8032f9:	d9 1c 24             	fstps  (%esp)
  8032fc:	52                   	push   %edx
  8032fd:	50                   	push   %eax
  8032fe:	e8 b2 dc 01 00       	call   820fb5 <PAL_PlayMUS>
  803303:	83 c4 10             	add    $0x10,%esp
  803306:	e9 38 32 00 00       	jmp    806543 <.L548+0x7c>

0080330b <.L151>:
  80330b:	8b 45 b4             	mov    -0x4c(%ebp),%eax
  80330e:	0f b7 40 06          	movzwl 0x6(%eax),%eax
  803312:	0f b7 d8             	movzwl %ax,%ebx
  803315:	8b 45 b4             	mov    -0x4c(%ebp),%eax
  803318:	0f b7 40 04          	movzwl 0x4(%eax),%eax
  80331c:	0f b7 c8             	movzwl %ax,%ecx
  80331f:	8b 45 b4             	mov    -0x4c(%ebp),%eax
  803322:	0f b7 40 02          	movzwl 0x2(%eax),%eax
  803326:	0f b7 d0             	movzwl %ax,%edx
  803329:	0f b7 85 90 fe ff ff 	movzwl -0x170(%ebp),%eax
  803330:	83 ec 0c             	sub    $0xc,%esp
  803333:	6a 04                	push   $0x4
  803335:	53                   	push   %ebx
  803336:	51                   	push   %ecx
  803337:	52                   	push   %edx
  803338:	50                   	push   %eax
  803339:	e8 3d d9 ff ff       	call   800c7b <PAL_PartyRideEventObject>
  80333e:	83 c4 20             	add    $0x20,%esp
  803341:	e9 fd 31 00 00       	jmp    806543 <.L548+0x7c>

00803346 <.L152>:
  803346:	c7 c0 c8 bf 85 00    	mov    $0x85bfc8,%eax
  80334c:	8b 00                	mov    (%eax),%eax
  80334e:	8b 55 b4             	mov    -0x4c(%ebp),%edx
  803351:	0f b7 52 02          	movzwl 0x2(%edx),%edx
  803355:	66 89 90 56 44 00 00 	mov    %dx,0x4456(%eax)
  80335c:	e9 e2 31 00 00       	jmp    806543 <.L548+0x7c>

00803361 <.L153>:
  803361:	c7 c0 c8 bf 85 00    	mov    $0x85bfc8,%eax
  803367:	8b 00                	mov    (%eax),%eax
  803369:	0f b7 80 48 44 00 00 	movzwl 0x4448(%eax),%eax
  803370:	66 83 f8 01          	cmp    $0x1,%ax
  803374:	74 14                	je     80338a <.L153+0x29>
  803376:	c7 c0 c8 bf 85 00    	mov    $0x85bfc8,%eax
  80337c:	8b 00                	mov    (%eax),%eax
  80337e:	0f b7 80 48 44 00 00 	movzwl 0x4448(%eax),%eax
  803385:	66 85 c0             	test   %ax,%ax
  803388:	75 07                	jne    803391 <.L153+0x30>
  80338a:	b8 10 00 00 00       	mov    $0x10,%eax
  80338f:	eb 05                	jmp    803396 <.L153+0x35>
  803391:	b8 f0 ff ff ff       	mov    $0xfffffff0,%eax
  803396:	89 45 a0             	mov    %eax,-0x60(%ebp)
  803399:	c7 c0 c8 bf 85 00    	mov    $0x85bfc8,%eax
  80339f:	8b 00                	mov    (%eax),%eax
  8033a1:	0f b7 80 48 44 00 00 	movzwl 0x4448(%eax),%eax
  8033a8:	66 83 f8 01          	cmp    $0x1,%ax
  8033ac:	74 15                	je     8033c3 <.L153+0x62>
  8033ae:	c7 c0 c8 bf 85 00    	mov    $0x85bfc8,%eax
  8033b4:	8b 00                	mov    (%eax),%eax
  8033b6:	0f b7 80 48 44 00 00 	movzwl 0x4448(%eax),%eax
  8033bd:	66 83 f8 02          	cmp    $0x2,%ax
  8033c1:	75 07                	jne    8033ca <.L153+0x69>
  8033c3:	b8 08 00 00 00       	mov    $0x8,%eax
  8033c8:	eb 05                	jmp    8033cf <.L153+0x6e>
  8033ca:	b8 f8 ff ff ff       	mov    $0xfffffff8,%eax
  8033cf:	89 45 9c             	mov    %eax,-0x64(%ebp)
  8033d2:	8b 45 b4             	mov    -0x4c(%ebp),%eax
  8033d5:	0f b7 40 02          	movzwl 0x2(%eax),%eax
  8033d9:	0f b7 c0             	movzwl %ax,%eax
  8033dc:	8d 14 00             	lea    (%eax,%eax,1),%edx
  8033df:	8b 45 b4             	mov    -0x4c(%ebp),%eax
  8033e2:	0f b7 40 06          	movzwl 0x6(%eax),%eax
  8033e6:	0f b7 c0             	movzwl %ax,%eax
  8033e9:	01 d0                	add    %edx,%eax
  8033eb:	c1 e0 04             	shl    $0x4,%eax
  8033ee:	89 45 c0             	mov    %eax,-0x40(%ebp)
  8033f1:	8b 45 b4             	mov    -0x4c(%ebp),%eax
  8033f4:	0f b7 40 04          	movzwl 0x4(%eax),%eax
  8033f8:	0f b7 c0             	movzwl %ax,%eax
  8033fb:	8d 14 00             	lea    (%eax,%eax,1),%edx
  8033fe:	8b 45 b4             	mov    -0x4c(%ebp),%eax
  803401:	0f b7 40 06          	movzwl 0x6(%eax),%eax
  803405:	0f b7 c0             	movzwl %ax,%eax
  803408:	01 d0                	add    %edx,%eax
  80340a:	c1 e0 03             	shl    $0x3,%eax
  80340d:	89 45 bc             	mov    %eax,-0x44(%ebp)
  803410:	c7 c0 c8 bf 85 00    	mov    $0x85bfc8,%eax
  803416:	8b 00                	mov    (%eax),%eax
  803418:	8b 80 f0 43 00 00    	mov    0x43f0(%eax),%eax
  80341e:	98                   	cwtl   
  80341f:	29 45 c0             	sub    %eax,-0x40(%ebp)
  803422:	c7 c0 c8 bf 85 00    	mov    $0x85bfc8,%eax
  803428:	8b 00                	mov    (%eax),%eax
  80342a:	8b 80 f0 43 00 00    	mov    0x43f0(%eax),%eax
  803430:	c1 e8 10             	shr    $0x10,%eax
  803433:	98                   	cwtl   
  803434:	29 45 bc             	sub    %eax,-0x44(%ebp)
  803437:	c7 c0 c8 bf 85 00    	mov    $0x85bfc8,%eax
  80343d:	8b 00                	mov    (%eax),%eax
  80343f:	8b 55 bc             	mov    -0x44(%ebp),%edx
  803442:	0f b7 d2             	movzwl %dx,%edx
  803445:	c1 e2 10             	shl    $0x10,%edx
  803448:	89 d1                	mov    %edx,%ecx
  80344a:	8b 55 c0             	mov    -0x40(%ebp),%edx
  80344d:	0f b7 d2             	movzwl %dx,%edx
  803450:	09 ca                	or     %ecx,%edx
  803452:	89 90 ec 43 00 00    	mov    %edx,0x43ec(%eax)
  803458:	c7 c0 c8 bf 85 00    	mov    $0x85bfc8,%eax
  80345e:	8b 00                	mov    (%eax),%eax
  803460:	8b 80 f0 43 00 00    	mov    0x43f0(%eax),%eax
  803466:	98                   	cwtl   
  803467:	89 45 c0             	mov    %eax,-0x40(%ebp)
  80346a:	c7 c0 c8 bf 85 00    	mov    $0x85bfc8,%eax
  803470:	8b 00                	mov    (%eax),%eax
  803472:	8b 80 f0 43 00 00    	mov    0x43f0(%eax),%eax
  803478:	c1 e8 10             	shr    $0x10,%eax
  80347b:	98                   	cwtl   
  80347c:	89 45 bc             	mov    %eax,-0x44(%ebp)
  80347f:	c7 45 d8 00 00 00 00 	movl   $0x0,-0x28(%ebp)
  803486:	e9 eb 00 00 00       	jmp    803576 <.L153+0x215>
  80348b:	c7 c0 c8 bf 85 00    	mov    $0x85bfc8,%eax
  803491:	8b 08                	mov    (%eax),%ecx
  803493:	8b 45 c0             	mov    -0x40(%ebp),%eax
  803496:	89 c6                	mov    %eax,%esi
  803498:	8b 55 d8             	mov    -0x28(%ebp),%edx
  80349b:	89 d0                	mov    %edx,%eax
  80349d:	c1 e0 02             	shl    $0x2,%eax
  8034a0:	01 d0                	add    %edx,%eax
  8034a2:	01 c0                	add    %eax,%eax
  8034a4:	01 c8                	add    %ecx,%eax
  8034a6:	05 fa 43 00 00       	add    $0x43fa,%eax
  8034ab:	66 89 30             	mov    %si,(%eax)
  8034ae:	c7 c0 c8 bf 85 00    	mov    $0x85bfc8,%eax
  8034b4:	8b 08                	mov    (%eax),%ecx
  8034b6:	8b 45 bc             	mov    -0x44(%ebp),%eax
  8034b9:	89 c6                	mov    %eax,%esi
  8034bb:	8b 55 d8             	mov    -0x28(%ebp),%edx
  8034be:	89 d0                	mov    %edx,%eax
  8034c0:	c1 e0 02             	shl    $0x2,%eax
  8034c3:	01 d0                	add    %edx,%eax
  8034c5:	01 c0                	add    %eax,%eax
  8034c7:	01 c8                	add    %ecx,%eax
  8034c9:	05 fc 43 00 00       	add    $0x43fc,%eax
  8034ce:	66 89 30             	mov    %si,(%eax)
  8034d1:	c7 c0 c8 bf 85 00    	mov    $0x85bfc8,%eax
  8034d7:	8b 30                	mov    (%eax),%esi
  8034d9:	c7 c0 c8 bf 85 00    	mov    $0x85bfc8,%eax
  8034df:	8b 00                	mov    (%eax),%eax
  8034e1:	8b 80 ec 43 00 00    	mov    0x43ec(%eax),%eax
  8034e7:	89 c2                	mov    %eax,%edx
  8034e9:	8b 45 c0             	mov    -0x40(%ebp),%eax
  8034ec:	8d 0c 02             	lea    (%edx,%eax,1),%ecx
  8034ef:	8b 55 d8             	mov    -0x28(%ebp),%edx
  8034f2:	89 d0                	mov    %edx,%eax
  8034f4:	01 c0                	add    %eax,%eax
  8034f6:	01 d0                	add    %edx,%eax
  8034f8:	01 c0                	add    %eax,%eax
  8034fa:	01 f0                	add    %esi,%eax
  8034fc:	05 2a 44 00 00       	add    $0x442a,%eax
  803501:	66 89 08             	mov    %cx,(%eax)
  803504:	c7 c0 c8 bf 85 00    	mov    $0x85bfc8,%eax
  80350a:	8b 30                	mov    (%eax),%esi
  80350c:	c7 c0 c8 bf 85 00    	mov    $0x85bfc8,%eax
  803512:	8b 00                	mov    (%eax),%eax
  803514:	8b 80 ec 43 00 00    	mov    0x43ec(%eax),%eax
  80351a:	c1 e8 10             	shr    $0x10,%eax
  80351d:	89 c2                	mov    %eax,%edx
  80351f:	8b 45 bc             	mov    -0x44(%ebp),%eax
  803522:	8d 0c 02             	lea    (%edx,%eax,1),%ecx
  803525:	8b 55 d8             	mov    -0x28(%ebp),%edx
  803528:	89 d0                	mov    %edx,%eax
  80352a:	01 c0                	add    %eax,%eax
  80352c:	01 d0                	add    %edx,%eax
  80352e:	01 c0                	add    %eax,%eax
  803530:	01 f0                	add    %esi,%eax
  803532:	05 2c 44 00 00       	add    $0x442c,%eax
  803537:	66 89 08             	mov    %cx,(%eax)
  80353a:	c7 c0 c8 bf 85 00    	mov    $0x85bfc8,%eax
  803540:	8b 30                	mov    (%eax),%esi
  803542:	c7 c0 c8 bf 85 00    	mov    $0x85bfc8,%eax
  803548:	8b 00                	mov    (%eax),%eax
  80354a:	0f b7 88 48 44 00 00 	movzwl 0x4448(%eax),%ecx
  803551:	8b 55 d8             	mov    -0x28(%ebp),%edx
  803554:	89 d0                	mov    %edx,%eax
  803556:	01 c0                	add    %eax,%eax
  803558:	01 d0                	add    %edx,%eax
  80355a:	01 c0                	add    %eax,%eax
  80355c:	01 f0                	add    %esi,%eax
  80355e:	05 2e 44 00 00       	add    $0x442e,%eax
  803563:	66 89 08             	mov    %cx,(%eax)
  803566:	8b 45 a0             	mov    -0x60(%ebp),%eax
  803569:	01 45 c0             	add    %eax,-0x40(%ebp)
  80356c:	8b 45 9c             	mov    -0x64(%ebp),%eax
  80356f:	01 45 bc             	add    %eax,-0x44(%ebp)
  803572:	83 45 d8 01          	addl   $0x1,-0x28(%ebp)
  803576:	83 7d d8 04          	cmpl   $0x4,-0x28(%ebp)
  80357a:	0f 8e 0b ff ff ff    	jle    80348b <.L153+0x12a>
  803580:	e9 be 2f 00 00       	jmp    806543 <.L548+0x7c>

00803585 <.L154>:
  803585:	8b 45 b4             	mov    -0x4c(%ebp),%eax
  803588:	0f b7 40 02          	movzwl 0x2(%eax),%eax
  80358c:	0f b7 c0             	movzwl %ax,%eax
  80358f:	83 ec 08             	sub    $0x8,%esp
  803592:	6a 00                	push   $0x0
  803594:	50                   	push   %eax
  803595:	e8 0b da 01 00       	call   820fa5 <SOUND_PlayChannel>
  80359a:	83 c4 10             	add    $0x10,%esp
  80359d:	e9 a1 2f 00 00       	jmp    806543 <.L548+0x7c>

008035a2 <.L155>:
  8035a2:	8b 45 b4             	mov    -0x4c(%ebp),%eax
  8035a5:	0f b7 40 04          	movzwl 0x4(%eax),%eax
  8035a9:	89 c2                	mov    %eax,%edx
  8035ab:	8b 45 e0             	mov    -0x20(%ebp),%eax
  8035ae:	66 89 50 0c          	mov    %dx,0xc(%eax)
  8035b2:	e9 8c 2f 00 00       	jmp    806543 <.L548+0x7c>

008035b7 <.L156>:
  8035b7:	c7 c0 c8 bf 85 00    	mov    $0x85bfc8,%eax
  8035bd:	8b 00                	mov    (%eax),%eax
  8035bf:	8b 55 b4             	mov    -0x4c(%ebp),%edx
  8035c2:	0f b7 52 02          	movzwl 0x2(%edx),%edx
  8035c6:	66 89 90 58 44 00 00 	mov    %dx,0x4458(%eax)
  8035cd:	e9 71 2f 00 00       	jmp    806543 <.L548+0x7c>

008035d2 <.L157>:
  8035d2:	8b 45 e4             	mov    -0x1c(%ebp),%eax
  8035d5:	66 c7 00 f1 ff       	movw   $0xfff1,(%eax)
  8035da:	e9 64 2f 00 00       	jmp    806543 <.L548+0x7c>

008035df <.L158>:
  8035df:	8b 45 b4             	mov    -0x4c(%ebp),%eax
  8035e2:	0f b7 40 02          	movzwl 0x2(%eax),%eax
  8035e6:	0f b7 c0             	movzwl %ax,%eax
  8035e9:	89 45 d8             	mov    %eax,-0x28(%ebp)
  8035ec:	8b 45 b4             	mov    -0x4c(%ebp),%eax
  8035ef:	0f b7 40 04          	movzwl 0x4(%eax),%eax
  8035f3:	0f b7 c0             	movzwl %ax,%eax
  8035f6:	89 45 d4             	mov    %eax,-0x2c(%ebp)
  8035f9:	83 7d d8 00          	cmpl   $0x0,-0x28(%ebp)
  8035fd:	75 07                	jne    803606 <.L158+0x27>
  8035ff:	c7 45 d8 08 00 00 00 	movl   $0x8,-0x28(%ebp)
  803606:	83 7d d4 00          	cmpl   $0x0,-0x2c(%ebp)
  80360a:	75 07                	jne    803613 <.L158+0x34>
  80360c:	c7 45 d4 04 00 00 00 	movl   $0x4,-0x2c(%ebp)
  803613:	8b 45 b4             	mov    -0x4c(%ebp),%eax
  803616:	0f b7 40 06          	movzwl 0x6(%eax),%eax
  80361a:	0f b7 d8             	movzwl %ax,%ebx
  80361d:	8b 45 d8             	mov    -0x28(%ebp),%eax
  803620:	0f b7 c8             	movzwl %ax,%ecx
  803623:	8b 45 d4             	mov    -0x2c(%ebp),%eax
  803626:	0f b7 d0             	movzwl %ax,%edx
  803629:	0f b7 85 90 fe ff ff 	movzwl -0x170(%ebp),%eax
  803630:	53                   	push   %ebx
  803631:	51                   	push   %ecx
  803632:	52                   	push   %edx
  803633:	50                   	push   %eax
  803634:	e8 e5 d9 ff ff       	call   80101e <PAL_MonsterChasePlayer>
  803639:	83 c4 10             	add    $0x10,%esp
  80363c:	e9 02 2f 00 00       	jmp    806543 <.L548+0x7c>

00803641 <.L159>:
  803641:	83 ec 0c             	sub    $0xc,%esp
  803644:	6a 00                	push   $0x0
  803646:	e8 f0 47 00 00       	call   807e3b <PAL_WaitForKey>
  80364b:	83 c4 10             	add    $0x10,%esp
  80364e:	e9 f0 2e 00 00       	jmp    806543 <.L548+0x7c>

00803653 <.L160>:
  803653:	83 ec 0c             	sub    $0xc,%esp
  803656:	6a 01                	push   $0x1
  803658:	e8 a4 b9 02 00       	call   82f001 <PAL_FadeOut>
  80365d:	83 c4 10             	add    $0x10,%esp
  803660:	c7 c0 c8 bf 85 00    	mov    $0x85bfc8,%eax
  803666:	8b 00                	mov    (%eax),%eax
  803668:	0f b6 80 b8 2a 00 00 	movzbl 0x2ab8(%eax),%eax
  80366f:	0f b6 c0             	movzbl %al,%eax
  803672:	83 ec 0c             	sub    $0xc,%esp
  803675:	50                   	push   %eax
  803676:	e8 4c 75 00 00       	call   80abc7 <PAL_InitGameData>
  80367b:	83 c4 10             	add    $0x10,%esp
  80367e:	b8 00 00 00 00       	mov    $0x0,%eax
  803683:	e9 c5 2e 00 00       	jmp    80654d <.L548+0x86>

00803688 <.L161>:
  803688:	e8 24 c6 02 00       	call   82fcb1 <PAL_FadeToRed>
  80368d:	e9 b1 2e 00 00       	jmp    806543 <.L548+0x7c>

00803692 <.L162>:
  803692:	83 ec 0c             	sub    $0xc,%esp
  803695:	6a 00                	push   $0x0
  803697:	e8 e6 aa 02 00       	call   82e182 <VIDEO_UpdateScreen>
  80369c:	83 c4 10             	add    $0x10,%esp
  80369f:	8b 45 b4             	mov    -0x4c(%ebp),%eax
  8036a2:	0f b7 40 02          	movzwl 0x2(%eax),%eax
  8036a6:	66 85 c0             	test   %ax,%ax
  8036a9:	74 0c                	je     8036b7 <.L162+0x25>
  8036ab:	8b 45 b4             	mov    -0x4c(%ebp),%eax
  8036ae:	0f b7 40 02          	movzwl 0x2(%eax),%eax
  8036b2:	0f b7 c0             	movzwl %ax,%eax
  8036b5:	eb 05                	jmp    8036bc <.L162+0x2a>
  8036b7:	b8 01 00 00 00       	mov    $0x1,%eax
  8036bc:	83 ec 0c             	sub    $0xc,%esp
  8036bf:	50                   	push   %eax
  8036c0:	e8 3c b9 02 00       	call   82f001 <PAL_FadeOut>
  8036c5:	83 c4 10             	add    $0x10,%esp
  8036c8:	c7 c0 c8 bf 85 00    	mov    $0x85bfc8,%eax
  8036ce:	8b 00                	mov    (%eax),%eax
  8036d0:	c7 80 d4 2a 00 00 01 	movl   $0x1,0x2ad4(%eax)
  8036d7:	00 00 00 
  8036da:	e9 64 2e 00 00       	jmp    806543 <.L548+0x7c>

008036df <.L163>:
  8036df:	83 ec 0c             	sub    $0xc,%esp
  8036e2:	6a 00                	push   $0x0
  8036e4:	e8 99 aa 02 00       	call   82e182 <VIDEO_UpdateScreen>
  8036e9:	83 c4 10             	add    $0x10,%esp
  8036ec:	8b 45 b4             	mov    -0x4c(%ebp),%eax
  8036ef:	0f b7 40 02          	movzwl 0x2(%eax),%eax
  8036f3:	66 85 c0             	test   %ax,%ax
  8036f6:	7e 0c                	jle    803704 <.L163+0x25>
  8036f8:	8b 45 b4             	mov    -0x4c(%ebp),%eax
  8036fb:	0f b7 40 02          	movzwl 0x2(%eax),%eax
  8036ff:	0f b7 c0             	movzwl %ax,%eax
  803702:	eb 05                	jmp    803709 <.L163+0x2a>
  803704:	b8 01 00 00 00       	mov    $0x1,%eax
  803709:	c7 c2 c8 bf 85 00    	mov    $0x85bfc8,%edx
  80370f:	8b 12                	mov    (%edx),%edx
  803711:	8b 8a 50 44 00 00    	mov    0x4450(%edx),%ecx
  803717:	c7 c2 c8 bf 85 00    	mov    $0x85bfc8,%edx
  80371d:	8b 12                	mov    (%edx),%edx
  80371f:	0f b7 92 4c 44 00 00 	movzwl 0x444c(%edx),%edx
  803726:	0f b7 d2             	movzwl %dx,%edx
  803729:	83 ec 04             	sub    $0x4,%esp
  80372c:	50                   	push   %eax
  80372d:	51                   	push   %ecx
  80372e:	52                   	push   %edx
  80372f:	e8 2b ba 02 00       	call   82f15f <PAL_FadeIn>
  803734:	83 c4 10             	add    $0x10,%esp
  803737:	c7 c0 c8 bf 85 00    	mov    $0x85bfc8,%eax
  80373d:	8b 00                	mov    (%eax),%eax
  80373f:	c7 80 d4 2a 00 00 00 	movl   $0x0,0x2ad4(%eax)
  803746:	00 00 00 
  803749:	e9 f5 2d 00 00       	jmp    806543 <.L548+0x7c>

0080374e <.L164>:
  80374e:	8b 45 e4             	mov    -0x1c(%ebp),%eax
  803751:	0f b7 40 0c          	movzwl 0xc(%eax),%eax
  803755:	f7 d8                	neg    %eax
  803757:	89 c2                	mov    %eax,%edx
  803759:	8b 45 e4             	mov    -0x1c(%ebp),%eax
  80375c:	66 89 50 0c          	mov    %dx,0xc(%eax)
  803760:	8b 45 b4             	mov    -0x4c(%ebp),%eax
  803763:	0f b7 40 02          	movzwl 0x2(%eax),%eax
  803767:	66 85 c0             	test   %ax,%ax
  80376a:	74 0b                	je     803777 <.L164+0x29>
  80376c:	8b 45 b4             	mov    -0x4c(%ebp),%eax
  80376f:	0f b7 40 02          	movzwl 0x2(%eax),%eax
  803773:	89 c2                	mov    %eax,%edx
  803775:	eb 05                	jmp    80377c <.L164+0x2e>
  803777:	ba 20 03 00 00       	mov    $0x320,%edx
  80377c:	8b 45 e4             	mov    -0x1c(%ebp),%eax
  80377f:	66 89 10             	mov    %dx,(%eax)
  803782:	e9 bc 2d 00 00       	jmp    806543 <.L548+0x7c>

00803787 <.L165>:
  803787:	c7 c0 c8 bf 85 00    	mov    $0x85bfc8,%eax
  80378d:	8b 00                	mov    (%eax),%eax
  80378f:	c7 80 50 44 00 00 00 	movl   $0x0,0x4450(%eax)
  803796:	00 00 00 
  803799:	e9 a5 2d 00 00       	jmp    806543 <.L548+0x7c>

0080379e <.L166>:
  80379e:	c7 c0 c8 bf 85 00    	mov    $0x85bfc8,%eax
  8037a4:	8b 00                	mov    (%eax),%eax
  8037a6:	c7 80 50 44 00 00 01 	movl   $0x1,0x4450(%eax)
  8037ad:	00 00 00 
  8037b0:	e9 8e 2d 00 00       	jmp    806543 <.L548+0x7c>

008037b5 <.L167>:
  8037b5:	8b 45 b4             	mov    -0x4c(%ebp),%eax
  8037b8:	0f b7 40 04          	movzwl 0x4(%eax),%eax
  8037bc:	0f b7 c0             	movzwl %ax,%eax
  8037bf:	89 45 d8             	mov    %eax,-0x28(%ebp)
  8037c2:	83 7d d8 00          	cmpl   $0x0,-0x28(%ebp)
  8037c6:	75 0c                	jne    8037d4 <.L167+0x1f>
  8037c8:	0f b7 85 90 fe ff ff 	movzwl -0x170(%ebp),%eax
  8037cf:	89 45 d8             	mov    %eax,-0x28(%ebp)
  8037d2:	eb 04                	jmp    8037d8 <.L167+0x23>
  8037d4:	83 6d d8 01          	subl   $0x1,-0x28(%ebp)
  8037d8:	8b 45 b4             	mov    -0x4c(%ebp),%eax
  8037db:	0f b7 40 02          	movzwl 0x2(%eax),%eax
  8037df:	0f b7 d0             	movzwl %ax,%edx
  8037e2:	8b 45 d8             	mov    -0x28(%ebp),%eax
  8037e5:	0f b7 c0             	movzwl %ax,%eax
  8037e8:	83 ec 08             	sub    $0x8,%esp
  8037eb:	52                   	push   %edx
  8037ec:	50                   	push   %eax
  8037ed:	e8 b2 87 00 00       	call   80bfa4 <PAL_AddMagic>
  8037f2:	83 c4 10             	add    $0x10,%esp
  8037f5:	e9 49 2d 00 00       	jmp    806543 <.L548+0x7c>

008037fa <.L168>:
  8037fa:	8b 45 b4             	mov    -0x4c(%ebp),%eax
  8037fd:	0f b7 40 04          	movzwl 0x4(%eax),%eax
  803801:	0f b7 c0             	movzwl %ax,%eax
  803804:	89 45 d8             	mov    %eax,-0x28(%ebp)
  803807:	83 7d d8 00          	cmpl   $0x0,-0x28(%ebp)
  80380b:	75 0c                	jne    803819 <.L168+0x1f>
  80380d:	0f b7 85 90 fe ff ff 	movzwl -0x170(%ebp),%eax
  803814:	89 45 d8             	mov    %eax,-0x28(%ebp)
  803817:	eb 04                	jmp    80381d <.L168+0x23>
  803819:	83 6d d8 01          	subl   $0x1,-0x28(%ebp)
  80381d:	8b 45 b4             	mov    -0x4c(%ebp),%eax
  803820:	0f b7 40 02          	movzwl 0x2(%eax),%eax
  803824:	0f b7 d0             	movzwl %ax,%edx
  803827:	8b 45 d8             	mov    -0x28(%ebp),%eax
  80382a:	0f b7 c0             	movzwl %ax,%eax
  80382d:	83 ec 08             	sub    $0x8,%esp
  803830:	52                   	push   %edx
  803831:	50                   	push   %eax
  803832:	e8 4a 88 00 00       	call   80c081 <PAL_RemoveMagic>
  803837:	83 c4 10             	add    $0x10,%esp
  80383a:	e9 04 2d 00 00       	jmp    806543 <.L548+0x7c>

0080383f <.L169>:
  80383f:	8b 45 b4             	mov    -0x4c(%ebp),%eax
  803842:	0f b7 40 04          	movzwl 0x4(%eax),%eax
  803846:	66 85 c0             	test   %ax,%ax
  803849:	74 0c                	je     803857 <.L169+0x18>
  80384b:	8b 45 b4             	mov    -0x4c(%ebp),%eax
  80384e:	0f b7 40 04          	movzwl 0x4(%eax),%eax
  803852:	0f b7 c0             	movzwl %ax,%eax
  803855:	eb 05                	jmp    80385c <.L169+0x1d>
  803857:	b8 08 00 00 00       	mov    $0x8,%eax
  80385c:	89 45 d8             	mov    %eax,-0x28(%ebp)
  80385f:	c7 c0 c8 bf 85 00    	mov    $0x85bfc8,%eax
  803865:	8b 08                	mov    (%eax),%ecx
  803867:	8b 45 b4             	mov    -0x4c(%ebp),%eax
  80386a:	0f b7 40 02          	movzwl 0x2(%eax),%eax
  80386e:	0f b7 d0             	movzwl %ax,%edx
  803871:	89 d0                	mov    %edx,%eax
  803873:	01 c0                	add    %eax,%eax
  803875:	01 d0                	add    %edx,%eax
  803877:	c1 e0 02             	shl    $0x2,%eax
  80387a:	01 c8                	add    %ecx,%eax
  80387c:	05 88 09 00 00       	add    $0x988,%eax
  803881:	0f b7 00             	movzwl (%eax),%eax
  803884:	0f b7 c0             	movzwl %ax,%eax
  803887:	89 45 d4             	mov    %eax,-0x2c(%ebp)
  80388a:	c7 c0 c8 bf 85 00    	mov    $0x85bfc8,%eax
  803890:	8b 00                	mov    (%eax),%eax
  803892:	8b 80 4c 29 00 00    	mov    0x294c(%eax),%eax
  803898:	8b 55 d4             	mov    -0x2c(%ebp),%edx
  80389b:	c1 e2 05             	shl    $0x5,%edx
  80389e:	01 c2                	add    %eax,%edx
  8038a0:	c7 c0 c8 bf 85 00    	mov    $0x85bfc8,%eax
  8038a6:	8b 00                	mov    (%eax),%eax
  8038a8:	0f b7 8d 90 fe ff ff 	movzwl -0x170(%ebp),%ecx
  8038af:	81 c1 18 13 00 00    	add    $0x1318,%ecx
  8038b5:	0f b7 44 48 10       	movzwl 0x10(%eax,%ecx,2),%eax
  8038ba:	8b 4d d8             	mov    -0x28(%ebp),%ecx
  8038bd:	0f af c1             	imul   %ecx,%eax
  8038c0:	66 89 42 1a          	mov    %ax,0x1a(%edx)
  8038c4:	c7 c0 c8 bf 85 00    	mov    $0x85bfc8,%eax
  8038ca:	8b 00                	mov    (%eax),%eax
  8038cc:	0f b7 95 90 fe ff ff 	movzwl -0x170(%ebp),%edx
  8038d3:	81 c2 18 13 00 00    	add    $0x1318,%edx
  8038d9:	66 c7 44 50 10 00 00 	movw   $0x0,0x10(%eax,%edx,2)
  8038e0:	e9 5e 2c 00 00       	jmp    806543 <.L548+0x7c>

008038e5 <.L170>:
  8038e5:	8b 45 b4             	mov    -0x4c(%ebp),%eax
  8038e8:	0f b7 40 02          	movzwl 0x2(%eax),%eax
  8038ec:	0f b7 c0             	movzwl %ax,%eax
  8038ef:	83 ec 0c             	sub    $0xc,%esp
  8038f2:	50                   	push   %eax
  8038f3:	e8 d7 75 00 00       	call   80aecf <PAL_GetItemAmount>
  8038f8:	83 c4 10             	add    $0x10,%esp
  8038fb:	89 c2                	mov    %eax,%edx
  8038fd:	8b 45 b4             	mov    -0x4c(%ebp),%eax
  803900:	0f b7 40 04          	movzwl 0x4(%eax),%eax
  803904:	98                   	cwtl   
  803905:	39 c2                	cmp    %eax,%edx
  803907:	0f 8d f0 2b 00 00    	jge    8064fd <.L548+0x36>
  80390d:	8b 45 b4             	mov    -0x4c(%ebp),%eax
  803910:	0f b7 40 06          	movzwl 0x6(%eax),%eax
  803914:	83 e8 01             	sub    $0x1,%eax
  803917:	66 89 85 94 fe ff ff 	mov    %ax,-0x16c(%ebp)
  80391e:	e9 da 2b 00 00       	jmp    8064fd <.L548+0x36>

00803923 <.L171>:
  803923:	8b 45 b4             	mov    -0x4c(%ebp),%eax
  803926:	0f b7 40 02          	movzwl 0x2(%eax),%eax
  80392a:	66 85 c0             	test   %ax,%ax
  80392d:	0f 84 cd 2b 00 00    	je     806500 <.L548+0x39>
  803933:	8b 45 b4             	mov    -0x4c(%ebp),%eax
  803936:	0f b7 40 02          	movzwl 0x2(%eax),%eax
  80393a:	66 3d 2c 01          	cmp    $0x12c,%ax
  80393e:	0f 87 bc 2b 00 00    	ja     806500 <.L548+0x39>
  803944:	c7 c0 c8 bf 85 00    	mov    $0x85bfc8,%eax
  80394a:	8b 00                	mov    (%eax),%eax
  80394c:	0f b7 90 4a 44 00 00 	movzwl 0x444a(%eax),%edx
  803953:	8b 45 b4             	mov    -0x4c(%ebp),%eax
  803956:	0f b7 40 02          	movzwl 0x2(%eax),%eax
  80395a:	66 39 c2             	cmp    %ax,%dx
  80395d:	0f 84 9d 2b 00 00    	je     806500 <.L548+0x39>
  803963:	c7 c0 c8 bf 85 00    	mov    $0x85bfc8,%eax
  803969:	8b 00                	mov    (%eax),%eax
  80396b:	8b 55 b4             	mov    -0x4c(%ebp),%edx
  80396e:	0f b7 52 02          	movzwl 0x2(%edx),%edx
  803972:	66 89 90 4a 44 00 00 	mov    %dx,0x444a(%eax)
  803979:	83 ec 0c             	sub    $0xc,%esp
  80397c:	6a 01                	push   $0x1
  80397e:	e8 d9 47 00 00       	call   80815c <PAL_SetLoadFlags>
  803983:	83 c4 10             	add    $0x10,%esp
  803986:	c7 c0 c8 bf 85 00    	mov    $0x85bfc8,%eax
  80398c:	8b 00                	mov    (%eax),%eax
  80398e:	c7 80 d0 2a 00 00 01 	movl   $0x1,0x2ad0(%eax)
  803995:	00 00 00 
  803998:	c7 c0 c8 bf 85 00    	mov    $0x85bfc8,%eax
  80399e:	8b 00                	mov    (%eax),%eax
  8039a0:	66 c7 80 f4 43 00 00 	movw   $0x0,0x43f4(%eax)
  8039a7:	00 00 
  8039a9:	e9 52 2b 00 00       	jmp    806500 <.L548+0x39>

008039ae <.L172>:
  8039ae:	c7 c0 c8 bf 85 00    	mov    $0x85bfc8,%eax
  8039b4:	8b 00                	mov    (%eax),%eax
  8039b6:	0f b7 b5 90 fe ff ff 	movzwl -0x170(%ebp),%esi
  8039bd:	c7 c2 c8 bf 85 00    	mov    $0x85bfc8,%edx
  8039c3:	8b 12                	mov    (%edx),%edx
  8039c5:	0f b7 8d 90 fe ff ff 	movzwl -0x170(%ebp),%ecx
  8039cc:	81 c1 10 13 00 00    	add    $0x1310,%ecx
  8039d2:	0f b7 54 4a 14       	movzwl 0x14(%edx,%ecx,2),%edx
  8039d7:	89 d1                	mov    %edx,%ecx
  8039d9:	66 d1 e9             	shr    %cx
  8039dc:	8d 96 10 13 00 00    	lea    0x1310(%esi),%edx
  8039e2:	66 89 4c 50 14       	mov    %cx,0x14(%eax,%edx,2)
  8039e7:	e9 57 2b 00 00       	jmp    806543 <.L548+0x7c>

008039ec <.L173>:
  8039ec:	0f b7 85 90 fe ff ff 	movzwl -0x170(%ebp),%eax
  8039f3:	c7 c2 c0 31 86 00    	mov    $0x8631c0,%edx
  8039f9:	69 c0 cc 00 00 00    	imul   $0xcc,%eax,%eax
  8039ff:	01 d0                	add    %edx,%eax
  803a01:	05 cc 00 00 00       	add    $0xcc,%eax
  803a06:	0f b7 00             	movzwl (%eax),%eax
  803a09:	66 d1 e8             	shr    %ax
  803a0c:	83 c0 01             	add    $0x1,%eax
  803a0f:	66 89 45 ca          	mov    %ax,-0x36(%ebp)
  803a13:	8b 45 b4             	mov    -0x4c(%ebp),%eax
  803a16:	0f b7 40 02          	movzwl 0x2(%eax),%eax
  803a1a:	66 3b 45 ca          	cmp    -0x36(%ebp),%ax
  803a1e:	73 0b                	jae    803a2b <.L173+0x3f>
  803a20:	8b 45 b4             	mov    -0x4c(%ebp),%eax
  803a23:	0f b7 40 02          	movzwl 0x2(%eax),%eax
  803a27:	66 89 45 ca          	mov    %ax,-0x36(%ebp)
  803a2b:	0f b7 95 90 fe ff ff 	movzwl -0x170(%ebp),%edx
  803a32:	0f b7 85 90 fe ff ff 	movzwl -0x170(%ebp),%eax
  803a39:	c7 c1 c0 31 86 00    	mov    $0x8631c0,%ecx
  803a3f:	69 c0 cc 00 00 00    	imul   $0xcc,%eax,%eax
  803a45:	01 c8                	add    %ecx,%eax
  803a47:	05 cc 00 00 00       	add    $0xcc,%eax
  803a4c:	0f b7 00             	movzwl (%eax),%eax
  803a4f:	66 2b 45 ca          	sub    -0x36(%ebp),%ax
  803a53:	c7 c1 c0 31 86 00    	mov    $0x8631c0,%ecx
  803a59:	69 d2 cc 00 00 00    	imul   $0xcc,%edx,%edx
  803a5f:	01 ca                	add    %ecx,%edx
  803a61:	81 c2 cc 00 00 00    	add    $0xcc,%edx
  803a67:	66 89 02             	mov    %ax,(%edx)
  803a6a:	e9 d4 2a 00 00       	jmp    806543 <.L548+0x7c>

00803a6f <.L174>:
  803a6f:	8b 45 b4             	mov    -0x4c(%ebp),%eax
  803a72:	0f b7 40 02          	movzwl 0x2(%eax),%eax
  803a76:	0f b7 c0             	movzwl %ax,%eax
  803a79:	f7 d8                	neg    %eax
  803a7b:	89 c2                	mov    %eax,%edx
  803a7d:	c7 c0 c0 31 86 00    	mov    $0x8631c0,%eax
  803a83:	89 90 0c 08 00 00    	mov    %edx,0x80c(%eax)
  803a89:	e9 b5 2a 00 00       	jmp    806543 <.L548+0x7c>

00803a8e <.L175>:
  803a8e:	8b 45 b4             	mov    -0x4c(%ebp),%eax
  803a91:	0f b7 40 02          	movzwl 0x2(%eax),%eax
  803a95:	0f b7 d0             	movzwl %ax,%edx
  803a98:	0f b7 85 90 fe ff ff 	movzwl -0x170(%ebp),%eax
  803a9f:	83 ec 08             	sub    $0x8,%esp
  803aa2:	52                   	push   %edx
  803aa3:	50                   	push   %eax
  803aa4:	e8 42 7f 00 00       	call   80b9eb <PAL_IsPlayerPoisonedByKind>
  803aa9:	83 c4 10             	add    $0x10,%esp
  803aac:	85 c0                	test   %eax,%eax
  803aae:	0f 85 4f 2a 00 00    	jne    806503 <.L548+0x3c>
  803ab4:	8b 45 b4             	mov    -0x4c(%ebp),%eax
  803ab7:	0f b7 40 04          	movzwl 0x4(%eax),%eax
  803abb:	83 e8 01             	sub    $0x1,%eax
  803abe:	66 89 85 94 fe ff ff 	mov    %ax,-0x16c(%ebp)
  803ac5:	e9 39 2a 00 00       	jmp    806503 <.L548+0x3c>

00803aca <.L176>:
  803aca:	c7 45 d8 00 00 00 00 	movl   $0x0,-0x28(%ebp)
  803ad1:	eb 2d                	jmp    803b00 <.L176+0x36>
  803ad3:	0f b7 95 90 fe ff ff 	movzwl -0x170(%ebp),%edx
  803ada:	c7 c0 c0 31 86 00    	mov    $0x8631c0,%eax
  803ae0:	6b ca 33             	imul   $0x33,%edx,%ecx
  803ae3:	8b 55 d8             	mov    -0x28(%ebp),%edx
  803ae6:	01 ca                	add    %ecx,%edx
  803ae8:	83 c2 44             	add    $0x44,%edx
  803aeb:	0f b7 54 90 04       	movzwl 0x4(%eax,%edx,4),%edx
  803af0:	8b 45 b4             	mov    -0x4c(%ebp),%eax
  803af3:	0f b7 40 02          	movzwl 0x2(%eax),%eax
  803af7:	66 39 c2             	cmp    %ax,%dx
  803afa:	74 0c                	je     803b08 <.L176+0x3e>
  803afc:	83 45 d8 01          	addl   $0x1,-0x28(%ebp)
  803b00:	83 7d d8 0f          	cmpl   $0xf,-0x28(%ebp)
  803b04:	7e cd                	jle    803ad3 <.L176+0x9>
  803b06:	eb 01                	jmp    803b09 <.L176+0x3f>
  803b08:	90                   	nop
  803b09:	83 7d d8 0f          	cmpl   $0xf,-0x28(%ebp)
  803b0d:	0f 8e f3 29 00 00    	jle    806506 <.L548+0x3f>
  803b13:	8b 45 b4             	mov    -0x4c(%ebp),%eax
  803b16:	0f b7 40 04          	movzwl 0x4(%eax),%eax
  803b1a:	83 e8 01             	sub    $0x1,%eax
  803b1d:	66 89 85 94 fe ff ff 	mov    %ax,-0x16c(%ebp)
  803b24:	e9 dd 29 00 00       	jmp    806506 <.L548+0x3f>

00803b29 <.L177>:
  803b29:	c7 c0 c8 bf 85 00    	mov    $0x85bfc8,%eax
  803b2f:	8b 00                	mov    (%eax),%eax
  803b31:	0f b7 95 90 fe ff ff 	movzwl -0x170(%ebp),%edx
  803b38:	81 c2 10 13 00 00    	add    $0x1310,%edx
  803b3e:	66 c7 44 50 14 00 00 	movw   $0x0,0x14(%eax,%edx,2)
  803b45:	e9 f9 29 00 00       	jmp    806543 <.L548+0x7c>

00803b4a <.L178>:
  803b4a:	0f b7 85 90 fe ff ff 	movzwl -0x170(%ebp),%eax
  803b51:	c7 c2 c0 31 86 00    	mov    $0x8631c0,%edx
  803b57:	69 c0 cc 00 00 00    	imul   $0xcc,%eax,%eax
  803b5d:	01 d0                	add    %edx,%eax
  803b5f:	05 cc 00 00 00       	add    $0xcc,%eax
  803b64:	66 c7 00 00 00       	movw   $0x0,(%eax)
  803b69:	e9 d5 29 00 00       	jmp    806543 <.L548+0x7c>

00803b6e <.L179>:
  803b6e:	0f b7 85 90 fe ff ff 	movzwl -0x170(%ebp),%eax
  803b75:	83 ec 08             	sub    $0x8,%esp
  803b78:	6a 01                	push   $0x1
  803b7a:	50                   	push   %eax
  803b7b:	e8 6d 7d 00 00       	call   80b8ed <PAL_IsPlayerPoisonedByLevel>
  803b80:	83 c4 10             	add    $0x10,%esp
  803b83:	85 c0                	test   %eax,%eax
  803b85:	0f 85 7e 29 00 00    	jne    806509 <.L548+0x42>
  803b8b:	8b 45 b4             	mov    -0x4c(%ebp),%eax
  803b8e:	0f b7 40 02          	movzwl 0x2(%eax),%eax
  803b92:	83 e8 01             	sub    $0x1,%eax
  803b95:	66 89 85 94 fe ff ff 	mov    %ax,-0x16c(%ebp)
  803b9c:	e9 68 29 00 00       	jmp    806509 <.L548+0x42>

00803ba1 <.L180>:
  803ba1:	c7 c0 c8 bf 85 00    	mov    $0x85bfc8,%eax
  803ba7:	8b 00                	mov    (%eax),%eax
  803ba9:	8b 55 b4             	mov    -0x4c(%ebp),%edx
  803bac:	0f b7 52 02          	movzwl 0x2(%edx),%edx
  803bb0:	66 89 90 62 44 00 00 	mov    %dx,0x4462(%eax)
  803bb7:	c7 c0 c8 bf 85 00    	mov    $0x85bfc8,%eax
  803bbd:	8b 00                	mov    (%eax),%eax
  803bbf:	66 c7 80 60 44 00 00 	movw   $0x0,0x4460(%eax)
  803bc6:	00 00 
  803bc8:	e9 76 29 00 00       	jmp    806543 <.L548+0x7c>

00803bcd <.L181>:
  803bcd:	c7 c0 c8 bf 85 00    	mov    $0x85bfc8,%eax
  803bd3:	8b 00                	mov    (%eax),%eax
  803bd5:	8b 55 b4             	mov    -0x4c(%ebp),%edx
  803bd8:	0f b7 52 02          	movzwl 0x2(%edx),%edx
  803bdc:	66 89 90 62 44 00 00 	mov    %dx,0x4462(%eax)
  803be3:	c7 c0 c8 bf 85 00    	mov    $0x85bfc8,%eax
  803be9:	8b 00                	mov    (%eax),%eax
  803beb:	66 c7 80 60 44 00 00 	movw   $0x3,0x4460(%eax)
  803bf2:	03 00 
  803bf4:	e9 4a 29 00 00       	jmp    806543 <.L548+0x7c>

00803bf9 <.L182>:
  803bf9:	c7 c0 c8 bf 85 00    	mov    $0x85bfc8,%eax
  803bff:	8b 08                	mov    (%eax),%ecx
  803c01:	0f b7 85 90 fe ff ff 	movzwl -0x170(%ebp),%eax
  803c08:	c7 c2 c0 31 86 00    	mov    $0x8631c0,%edx
  803c0e:	69 c0 cc 00 00 00    	imul   $0xcc,%eax,%eax
  803c14:	01 d0                	add    %edx,%eax
  803c16:	05 b4 00 00 00       	add    $0xb4,%eax
  803c1b:	0f b7 00             	movzwl (%eax),%eax
  803c1e:	0f b7 d0             	movzwl %ax,%edx
  803c21:	89 d0                	mov    %edx,%eax
  803c23:	01 c0                	add    %eax,%eax
  803c25:	01 d0                	add    %edx,%eax
  803c27:	c1 e0 02             	shl    $0x2,%eax
  803c2a:	01 c8                	add    %ecx,%eax
  803c2c:	05 88 09 00 00       	add    $0x988,%eax
  803c31:	0f b7 00             	movzwl (%eax),%eax
  803c34:	0f b7 c0             	movzwl %ax,%eax
  803c37:	89 45 d8             	mov    %eax,-0x28(%ebp)
  803c3a:	0f b7 85 90 fe ff ff 	movzwl -0x170(%ebp),%eax
  803c41:	c7 c2 c0 31 86 00    	mov    $0x8631c0,%edx
  803c47:	69 c0 cc 00 00 00    	imul   $0xcc,%eax,%eax
  803c4d:	01 d0                	add    %edx,%eax
  803c4f:	05 cc 00 00 00       	add    $0xcc,%eax
  803c54:	0f b7 00             	movzwl (%eax),%eax
  803c57:	0f b7 c0             	movzwl %ax,%eax
  803c5a:	6b d0 64             	imul   $0x64,%eax,%edx
  803c5d:	c7 c0 c8 bf 85 00    	mov    $0x85bfc8,%eax
  803c63:	8b 00                	mov    (%eax),%eax
  803c65:	8b 88 b8 25 00 00    	mov    0x25b8(%eax),%ecx
  803c6b:	8b 45 d8             	mov    -0x28(%ebp),%eax
  803c6e:	6b c0 46             	imul   $0x46,%eax,%eax
  803c71:	01 c8                	add    %ecx,%eax
  803c73:	0f b7 40 16          	movzwl 0x16(%eax),%eax
  803c77:	0f b7 c8             	movzwl %ax,%ecx
  803c7a:	8b 45 b4             	mov    -0x4c(%ebp),%eax
  803c7d:	0f b7 40 02          	movzwl 0x2(%eax),%eax
  803c81:	0f b7 c0             	movzwl %ax,%eax
  803c84:	0f af c1             	imul   %ecx,%eax
  803c87:	39 c2                	cmp    %eax,%edx
  803c89:	0f 8e 7d 28 00 00    	jle    80650c <.L548+0x45>
  803c8f:	8b 45 b4             	mov    -0x4c(%ebp),%eax
  803c92:	0f b7 40 04          	movzwl 0x4(%eax),%eax
  803c96:	83 e8 01             	sub    $0x1,%eax
  803c99:	66 89 85 94 fe ff ff 	mov    %ax,-0x16c(%ebp)
  803ca0:	e9 67 28 00 00       	jmp    80650c <.L548+0x45>

00803ca5 <.L183>:
  803ca5:	c7 c0 c8 bf 85 00    	mov    $0x85bfc8,%eax
  803cab:	8b 00                	mov    (%eax),%eax
  803cad:	8b 55 b4             	mov    -0x4c(%ebp),%edx
  803cb0:	0f b7 52 02          	movzwl 0x2(%edx),%edx
  803cb4:	0f b7 ca             	movzwl %dx,%ecx
  803cb7:	8b 55 b4             	mov    -0x4c(%ebp),%edx
  803cba:	0f b7 52 04          	movzwl 0x4(%edx),%edx
  803cbe:	81 c1 e8 12 00 00    	add    $0x12e8,%ecx
  803cc4:	66 89 54 48 10       	mov    %dx,0x10(%eax,%ecx,2)
  803cc9:	c7 c0 c8 bf 85 00    	mov    $0x85bfc8,%eax
  803ccf:	8b 00                	mov    (%eax),%eax
  803cd1:	8b 80 d8 2a 00 00    	mov    0x2ad8(%eax),%eax
  803cd7:	85 c0                	test   %eax,%eax
  803cd9:	0f 85 30 28 00 00    	jne    80650f <.L548+0x48>
  803cdf:	8b 45 b4             	mov    -0x4c(%ebp),%eax
  803ce2:	0f b7 40 06          	movzwl 0x6(%eax),%eax
  803ce6:	66 85 c0             	test   %ax,%ax
  803ce9:	0f 84 20 28 00 00    	je     80650f <.L548+0x48>
  803cef:	83 ec 0c             	sub    $0xc,%esp
  803cf2:	6a 02                	push   $0x2
  803cf4:	e8 63 44 00 00       	call   80815c <PAL_SetLoadFlags>
  803cf9:	83 c4 10             	add    $0x10,%esp
  803cfc:	e8 94 44 00 00       	call   808195 <PAL_LoadResources>
  803d01:	e9 09 28 00 00       	jmp    80650f <.L548+0x48>

00803d06 <.L184>:
  803d06:	8b 45 b4             	mov    -0x4c(%ebp),%eax
  803d09:	0f b7 50 04          	movzwl 0x4(%eax),%edx
  803d0d:	89 d0                	mov    %edx,%eax
  803d0f:	c1 e0 02             	shl    $0x2,%eax
  803d12:	01 d0                	add    %edx,%eax
  803d14:	66 89 45 ca          	mov    %ax,-0x36(%ebp)
  803d18:	c7 c0 c8 bf 85 00    	mov    $0x85bfc8,%eax
  803d1e:	8b 08                	mov    (%eax),%ecx
  803d20:	c7 c0 c8 bf 85 00    	mov    $0x85bfc8,%eax
  803d26:	8b 30                	mov    (%eax),%esi
  803d28:	c7 c0 c0 31 86 00    	mov    $0x8631c0,%eax
  803d2e:	0f b7 80 10 08 00 00 	movzwl 0x810(%eax),%eax
  803d35:	0f b7 d0             	movzwl %ax,%edx
  803d38:	89 d0                	mov    %edx,%eax
  803d3a:	c1 e0 02             	shl    $0x2,%eax
  803d3d:	01 d0                	add    %edx,%eax
  803d3f:	01 c0                	add    %eax,%eax
  803d41:	01 f0                	add    %esi,%eax
  803d43:	05 f8 43 00 00       	add    $0x43f8,%eax
  803d48:	0f b7 00             	movzwl (%eax),%eax
  803d4b:	0f b7 c0             	movzwl %ax,%eax
  803d4e:	05 40 13 00 00       	add    $0x1340,%eax
  803d53:	0f b7 44 41 14       	movzwl 0x14(%ecx,%eax,2),%eax
  803d58:	66 01 45 ca          	add    %ax,-0x36(%ebp)
  803d5c:	83 ec 08             	sub    $0x8,%esp
  803d5f:	6a 04                	push   $0x4
  803d61:	6a 00                	push   $0x0
  803d63:	e8 27 bb 00 00       	call   80f88f <RandomLong>
  803d68:	83 c4 10             	add    $0x10,%esp
  803d6b:	66 01 45 ca          	add    %ax,-0x36(%ebp)
  803d6f:	0f b7 4d ca          	movzwl -0x36(%ebp),%ecx
  803d73:	8b 45 b4             	mov    -0x4c(%ebp),%eax
  803d76:	0f b7 40 02          	movzwl 0x2(%eax),%eax
  803d7a:	0f b7 d0             	movzwl %ax,%edx
  803d7d:	0f b7 85 90 fe ff ff 	movzwl -0x170(%ebp),%eax
  803d84:	98                   	cwtl   
  803d85:	83 ec 04             	sub    $0x4,%esp
  803d88:	51                   	push   %ecx
  803d89:	52                   	push   %edx
  803d8a:	50                   	push   %eax
  803d8b:	e8 66 cd 01 00       	call   820af6 <PAL_BattleSimulateMagic>
  803d90:	83 c4 10             	add    $0x10,%esp
  803d93:	e9 ab 27 00 00       	jmp    806543 <.L548+0x7c>

00803d98 <.L185>:
  803d98:	0f b7 95 90 fe ff ff 	movzwl -0x170(%ebp),%edx
  803d9f:	8b 45 b4             	mov    -0x4c(%ebp),%eax
  803da2:	0f b7 40 02          	movzwl 0x2(%eax),%eax
  803da6:	c7 c1 c0 31 86 00    	mov    $0x8631c0,%ecx
  803dac:	69 d2 cc 00 00 00    	imul   $0xcc,%edx,%edx
  803db2:	01 ca                	add    %ecx,%edx
  803db4:	81 c2 d4 00 00 00    	add    $0xd4,%edx
  803dba:	66 89 02             	mov    %ax,(%edx)
  803dbd:	0f b7 95 90 fe ff ff 	movzwl -0x170(%ebp),%edx
  803dc4:	8b 45 b4             	mov    -0x4c(%ebp),%eax
  803dc7:	0f b7 40 04          	movzwl 0x4(%eax),%eax
  803dcb:	66 85 c0             	test   %ax,%ax
  803dce:	74 09                	je     803dd9 <.L185+0x41>
  803dd0:	8b 45 b4             	mov    -0x4c(%ebp),%eax
  803dd3:	0f b7 40 04          	movzwl 0x4(%eax),%eax
  803dd7:	eb 05                	jmp    803dde <.L185+0x46>
  803dd9:	b8 0a 00 00 00       	mov    $0xa,%eax
  803dde:	c7 c1 c0 31 86 00    	mov    $0x8631c0,%ecx
  803de4:	69 d2 cc 00 00 00    	imul   $0xcc,%edx,%edx
  803dea:	01 ca                	add    %ecx,%edx
  803dec:	81 c2 d6 00 00 00    	add    $0xd6,%edx
  803df2:	66 89 02             	mov    %ax,(%edx)
  803df5:	e9 49 27 00 00       	jmp    806543 <.L548+0x7c>

00803dfa <.L186>:
  803dfa:	c7 c0 c0 31 86 00    	mov    $0x8631c0,%eax
  803e00:	8b 80 08 08 00 00    	mov    0x808(%eax),%eax
  803e06:	85 c0                	test   %eax,%eax
  803e08:	0f 84 04 27 00 00    	je     806512 <.L548+0x4b>
  803e0e:	8b 45 b4             	mov    -0x4c(%ebp),%eax
  803e11:	0f b7 40 02          	movzwl 0x2(%eax),%eax
  803e15:	83 e8 01             	sub    $0x1,%eax
  803e18:	66 89 85 94 fe ff ff 	mov    %ax,-0x16c(%ebp)
  803e1f:	e9 ee 26 00 00       	jmp    806512 <.L548+0x4b>

00803e24 <.L187>:
  803e24:	e8 e4 06 01 00       	call   81450d <PAL_BattleEnemyEscape>
  803e29:	e9 15 27 00 00       	jmp    806543 <.L548+0x7c>

00803e2e <.L188>:
  803e2e:	8b 45 b4             	mov    -0x4c(%ebp),%eax
  803e31:	0f b7 40 02          	movzwl 0x2(%eax),%eax
  803e35:	0f b7 d0             	movzwl %ax,%edx
  803e38:	0f b7 85 90 fe ff ff 	movzwl -0x170(%ebp),%eax
  803e3f:	83 ec 08             	sub    $0x8,%esp
  803e42:	52                   	push   %edx
  803e43:	50                   	push   %eax
  803e44:	e8 d6 c7 01 00       	call   82061f <PAL_BattleStealFromEnemy>
  803e49:	83 c4 10             	add    $0x10,%esp
  803e4c:	e9 f2 26 00 00       	jmp    806543 <.L548+0x7c>

00803e51 <.L189>:
  803e51:	8b 45 b4             	mov    -0x4c(%ebp),%eax
  803e54:	0f b7 40 02          	movzwl 0x2(%eax),%eax
  803e58:	0f bf d0             	movswl %ax,%edx
  803e5b:	c7 c0 c0 31 86 00    	mov    $0x8631c0,%eax
  803e61:	89 90 14 08 00 00    	mov    %edx,0x814(%eax)
  803e67:	e9 d7 26 00 00       	jmp    806543 <.L548+0x7c>

00803e6c <.L190>:
  803e6c:	8b 45 e0             	mov    -0x20(%ebp),%eax
  803e6f:	0f b7 50 02          	movzwl 0x2(%eax),%edx
  803e73:	8b 45 b4             	mov    -0x4c(%ebp),%eax
  803e76:	0f b7 40 04          	movzwl 0x4(%eax),%eax
  803e7a:	01 c2                	add    %eax,%edx
  803e7c:	8b 45 e0             	mov    -0x20(%ebp),%eax
  803e7f:	66 89 50 02          	mov    %dx,0x2(%eax)
  803e83:	8b 45 e0             	mov    -0x20(%ebp),%eax
  803e86:	0f b7 50 04          	movzwl 0x4(%eax),%edx
  803e8a:	8b 45 b4             	mov    -0x4c(%ebp),%eax
  803e8d:	0f b7 40 06          	movzwl 0x6(%eax),%eax
  803e91:	01 c2                	add    %eax,%edx
  803e93:	8b 45 e0             	mov    -0x20(%ebp),%eax
  803e96:	66 89 50 04          	mov    %dx,0x4(%eax)
  803e9a:	0f b7 45 c8          	movzwl -0x38(%ebp),%eax
  803e9e:	83 ec 08             	sub    $0x8,%esp
  803ea1:	6a 00                	push   $0x0
  803ea3:	50                   	push   %eax
  803ea4:	e8 86 ea 01 00       	call   82292f <PAL_NPCWalkOneStep>
  803ea9:	83 c4 10             	add    $0x10,%esp
  803eac:	e9 92 26 00 00       	jmp    806543 <.L548+0x7c>

00803eb1 <.L191>:
  803eb1:	8b 45 b4             	mov    -0x4c(%ebp),%eax
  803eb4:	0f b7 40 02          	movzwl 0x2(%eax),%eax
  803eb8:	66 85 c0             	test   %ax,%ax
  803ebb:	0f 84 54 26 00 00    	je     806515 <.L548+0x4e>
  803ec1:	8b 45 b4             	mov    -0x4c(%ebp),%eax
  803ec4:	0f b7 40 04          	movzwl 0x4(%eax),%eax
  803ec8:	66 85 c0             	test   %ax,%ax
  803ecb:	74 24                	je     803ef1 <.L191+0x40>
  803ecd:	c7 c0 c8 bf 85 00    	mov    $0x85bfc8,%eax
  803ed3:	8b 00                	mov    (%eax),%eax
  803ed5:	8b 55 b4             	mov    -0x4c(%ebp),%edx
  803ed8:	0f b7 52 02          	movzwl 0x2(%edx),%edx
  803edc:	0f b7 d2             	movzwl %dx,%edx
  803edf:	8d 4a ff             	lea    -0x1(%edx),%ecx
  803ee2:	8b 55 b4             	mov    -0x4c(%ebp),%edx
  803ee5:	0f b7 52 04          	movzwl 0x4(%edx),%edx
  803ee9:	83 c1 04             	add    $0x4,%ecx
  803eec:	66 89 54 c8 0a       	mov    %dx,0xa(%eax,%ecx,8)
  803ef1:	8b 45 b4             	mov    -0x4c(%ebp),%eax
  803ef4:	0f b7 40 06          	movzwl 0x6(%eax),%eax
  803ef8:	66 85 c0             	test   %ax,%ax
  803efb:	74 24                	je     803f21 <.L191+0x70>
  803efd:	c7 c0 c8 bf 85 00    	mov    $0x85bfc8,%eax
  803f03:	8b 00                	mov    (%eax),%eax
  803f05:	8b 55 b4             	mov    -0x4c(%ebp),%edx
  803f08:	0f b7 52 02          	movzwl 0x2(%edx),%edx
  803f0c:	0f b7 d2             	movzwl %dx,%edx
  803f0f:	8d 4a ff             	lea    -0x1(%edx),%ecx
  803f12:	8b 55 b4             	mov    -0x4c(%ebp),%edx
  803f15:	0f b7 52 06          	movzwl 0x6(%edx),%edx
  803f19:	83 c1 04             	add    $0x4,%ecx
  803f1c:	66 89 54 c8 0c       	mov    %dx,0xc(%eax,%ecx,8)
  803f21:	8b 45 b4             	mov    -0x4c(%ebp),%eax
  803f24:	0f b7 40 04          	movzwl 0x4(%eax),%eax
  803f28:	66 85 c0             	test   %ax,%ax
  803f2b:	0f 85 e4 25 00 00    	jne    806515 <.L548+0x4e>
  803f31:	8b 45 b4             	mov    -0x4c(%ebp),%eax
  803f34:	0f b7 40 06          	movzwl 0x6(%eax),%eax
  803f38:	66 85 c0             	test   %ax,%ax
  803f3b:	0f 85 d4 25 00 00    	jne    806515 <.L548+0x4e>
  803f41:	c7 c0 c8 bf 85 00    	mov    $0x85bfc8,%eax
  803f47:	8b 00                	mov    (%eax),%eax
